

Microchip MPLAB XC8 Assembler V2.41 build 20230208172133 
                                                                                               Wed Jan 24 16:58:29 2024

Microchip MPLAB XC8 C Compiler v2.41 (Free license) build 20230208172133 Og1 
     1                           	processor	16F1579
     2                           	pagewidth 120
     3                           	opt	flic
     4                           	psect	idataBANK0,global,class=CODE,delta=2,noexec
     5                           	psect	nvBANK0,global,class=BANK0,space=1,delta=1,noexec
     6                           	psect	cinit,global,class=CODE,merge=1,delta=2
     7                           	psect	bssBANK0,global,class=BANK0,space=1,delta=1,noexec
     8                           	psect	dataBANK0,global,class=BANK0,space=1,delta=1,noexec
     9                           	psect	inittext,global,class=CODE,delta=2
    10                           	psect	cstackCOMMON,global,class=COMMON,space=1,delta=1,noexec
    11                           	psect	cstackBANK0,global,class=BANK0,space=1,delta=1,noexec
    12                           	psect	maintext,global,class=CODE,merge=1,split=1,delta=2
    13                           	psect	text1,local,class=CODE,merge=1,delta=2
    14                           	psect	text2,local,class=CODE,merge=1,delta=2
    15                           	psect	text3,local,class=CODE,merge=1,delta=2
    16                           	psect	text4,local,class=CODE,merge=1,delta=2
    17                           	psect	text5,local,class=CODE,merge=1,delta=2
    18                           	psect	text6,local,class=CODE,merge=1,delta=2
    19                           	psect	text7,local,class=CODE,merge=1,delta=2
    20                           	psect	text8,local,class=CODE,merge=1,delta=2
    21                           	psect	text9,local,class=CODE,merge=1,delta=2
    22                           	psect	intentry,global,class=CODE,delta=2
    23                           	psect	text11,local,class=CODE,merge=1,delta=2
    24                           	psect	text12,local,class=CODE,merge=1,delta=2
    25                           	psect	text13,local,class=CODE,merge=1,delta=2
    26                           	psect	text14,local,class=CODE,merge=1,delta=2
    27                           	psect	text15,local,class=CODE,merge=1,delta=2
    28                           	psect	text16,local,class=CODE,merge=1,delta=2
    29                           	psect	text17,local,class=CODE,merge=1,delta=2
    30                           	psect	text18,local,class=CODE,merge=1,delta=2
    31                           	psect	text19,local,class=CODE,merge=1,delta=2
    32                           	psect	text20,local,class=CODE,merge=1,delta=2
    33                           	psect	text21,local,class=CODE,merge=1,delta=2
    34                           	psect	text22,local,class=CODE,merge=1,delta=2
    35                           	psect	text23,local,class=CODE,merge=1,delta=2
    36                           	psect	text24,local,class=CODE,merge=1,delta=2
    37                           	psect	text25,local,class=CODE,merge=1,delta=2
    38                           	psect	text26,local,class=CODE,merge=1,delta=2
    39                           	psect	text27,local,class=CODE,merge=1,delta=2
    40                           	psect	config,global,abs,ovrld,class=CONFIG,space=4,delta=2,noexec
    41                           	dabs	1,0x7E,2
    42     0000                     
    43                           ; Generated 09/02/2023 GMT
    44                           ; 
    45                           ; Copyright © 2023, Microchip Technology Inc. and its subsidiaries ("Microchip")
    46                           ; All rights reserved.
    47                           ; 
    48                           ; This software is developed by Microchip Technology Inc. and its subsidiaries ("Microch
      +                          ip").
    49                           ; 
    50                           ; Redistribution and use in source and binary forms, with or without modification, are
    51                           ; permitted provided that the following conditions are met:
    52                           ; 
    53                           ;     1. Redistributions of source code must retain the above copyright notice, this lis
      +                          t of
    54                           ;        conditions and the following disclaimer.
    55                           ; 
    56                           ;     2. Redistributions in binary form must reproduce the above copyright notice, this 
      +                          list
    57                           ;        of conditions and the following disclaimer in the documentation and/or other
    58                           ;        materials provided with the distribution. Publication is not required when
    59                           ;        this file is used in an embedded application.
    60                           ; 
    61                           ;     3. Microchip's name may not be used to endorse or promote products derived from th
      +                          is
    62                           ;        software without specific prior written permission.
    63                           ; 
    64                           ; THIS SOFTWARE IS PROVIDED BY MICROCHIP "AS IS" AND ANY EXPRESS OR IMPLIED WARRANTIES,
    65                           ; INCLUDING, BUT NOT LIMITED TO, THE IMPLIED WARRANTIES OF MERCHANTABILITY AND FITNESS F
      +                          OR
    66                           ; PURPOSE ARE DISCLAIMED.  IN NO EVENT SHALL MICROCHIP BE LIABLE FOR ANY DIRECT, INDIREC
      +                          T,
    67                           ; INCIDENTAL, SPECIAL, EXEMPLARY, OR CONSEQUENTIAL DAMAGES (INCLUDING BUT NOT LIMITED TO
    68                           ; PROCUREMENT OF SUBSTITUTE GOODS OR SERVICES; LOSS OF USE, DATA OR PROFITS; OR BUSINESS
    69                           ; INTERRUPTION) HOWSOEVER CAUSED AND ON ANY THEORY OF LIABILITY, WHETHER IN CONTRACT, ST
      +                          RICT
    70                           ; LIABILITY, OR TORT (INCLUDING NEGLIGENCE OR OTHERWISE) ARISING IN ANY WAY OUT OF THE U
      +                          SE OF
    71                           ; THIS SOFTWARE, EVEN IF ADVISED OF THE POSSIBILITY OF SUCH DAMAGE.
    72                           ; 
    73                           ; 
    74                           ; Code-generator required, PIC16F1579 Definitions
    75                           ; 
    76                           ; SFR Addresses
    77     0000                     	;# 
    78     0001                     	;# 
    79     0002                     	;# 
    80     0003                     	;# 
    81     0004                     	;# 
    82     0005                     	;# 
    83     0006                     	;# 
    84     0007                     	;# 
    85     0008                     	;# 
    86     0009                     	;# 
    87     000A                     	;# 
    88     000B                     	;# 
    89     000C                     	;# 
    90     000D                     	;# 
    91     000E                     	;# 
    92     0011                     	;# 
    93     0012                     	;# 
    94     0013                     	;# 
    95     0015                     	;# 
    96     0016                     	;# 
    97     0016                     	;# 
    98     0017                     	;# 
    99     0018                     	;# 
   100     0019                     	;# 
   101     001A                     	;# 
   102     001B                     	;# 
   103     001C                     	;# 
   104     008C                     	;# 
   105     008D                     	;# 
   106     008E                     	;# 
   107     0091                     	;# 
   108     0092                     	;# 
   109     0093                     	;# 
   110     0095                     	;# 
   111     0096                     	;# 
   112     0097                     	;# 
   113     0098                     	;# 
   114     0099                     	;# 
   115     009A                     	;# 
   116     009B                     	;# 
   117     009B                     	;# 
   118     009C                     	;# 
   119     009D                     	;# 
   120     009E                     	;# 
   121     009F                     	;# 
   122     010C                     	;# 
   123     010D                     	;# 
   124     010E                     	;# 
   125     0111                     	;# 
   126     0112                     	;# 
   127     0113                     	;# 
   128     0114                     	;# 
   129     0115                     	;# 
   130     0116                     	;# 
   131     0117                     	;# 
   132     0118                     	;# 
   133     0119                     	;# 
   134     018C                     	;# 
   135     018D                     	;# 
   136     018E                     	;# 
   137     0191                     	;# 
   138     0191                     	;# 
   139     0192                     	;# 
   140     0193                     	;# 
   141     0193                     	;# 
   142     0194                     	;# 
   143     0195                     	;# 
   144     0196                     	;# 
   145     0197                     	;# 
   146     0199                     	;# 
   147     019A                     	;# 
   148     019B                     	;# 
   149     019B                     	;# 
   150     019C                     	;# 
   151     019D                     	;# 
   152     019E                     	;# 
   153     019F                     	;# 
   154     020C                     	;# 
   155     020D                     	;# 
   156     020E                     	;# 
   157     028C                     	;# 
   158     028D                     	;# 
   159     028E                     	;# 
   160     030C                     	;# 
   161     030D                     	;# 
   162     030E                     	;# 
   163     038C                     	;# 
   164     038D                     	;# 
   165     038E                     	;# 
   166     0391                     	;# 
   167     0392                     	;# 
   168     0393                     	;# 
   169     0394                     	;# 
   170     0395                     	;# 
   171     0396                     	;# 
   172     0397                     	;# 
   173     0398                     	;# 
   174     0399                     	;# 
   175     0691                     	;# 
   176     0692                     	;# 
   177     0693                     	;# 
   178     0694                     	;# 
   179     0695                     	;# 
   180     0D8E                     	;# 
   181     0D8F                     	;# 
   182     0D90                     	;# 
   183     0D91                     	;# 
   184     0D91                     	;# 
   185     0D92                     	;# 
   186     0D93                     	;# 
   187     0D93                     	;# 
   188     0D94                     	;# 
   189     0D95                     	;# 
   190     0D95                     	;# 
   191     0D96                     	;# 
   192     0D97                     	;# 
   193     0D97                     	;# 
   194     0D98                     	;# 
   195     0D99                     	;# 
   196     0D99                     	;# 
   197     0D9A                     	;# 
   198     0D9B                     	;# 
   199     0D9C                     	;# 
   200     0D9C                     	;# 
   201     0D9D                     	;# 
   202     0D9D                     	;# 
   203     0D9E                     	;# 
   204     0D9F                     	;# 
   205     0DA0                     	;# 
   206     0DA1                     	;# 
   207     0DA1                     	;# 
   208     0DA2                     	;# 
   209     0DA3                     	;# 
   210     0DA3                     	;# 
   211     0DA4                     	;# 
   212     0DA5                     	;# 
   213     0DA5                     	;# 
   214     0DA6                     	;# 
   215     0DA7                     	;# 
   216     0DA7                     	;# 
   217     0DA8                     	;# 
   218     0DA9                     	;# 
   219     0DA9                     	;# 
   220     0DAA                     	;# 
   221     0DAB                     	;# 
   222     0DAC                     	;# 
   223     0DAC                     	;# 
   224     0DAD                     	;# 
   225     0DAD                     	;# 
   226     0DAE                     	;# 
   227     0DAF                     	;# 
   228     0DB0                     	;# 
   229     0DB1                     	;# 
   230     0DB1                     	;# 
   231     0DB2                     	;# 
   232     0DB3                     	;# 
   233     0DB3                     	;# 
   234     0DB4                     	;# 
   235     0DB5                     	;# 
   236     0DB5                     	;# 
   237     0DB6                     	;# 
   238     0DB7                     	;# 
   239     0DB7                     	;# 
   240     0DB8                     	;# 
   241     0DB9                     	;# 
   242     0DB9                     	;# 
   243     0DBA                     	;# 
   244     0DBB                     	;# 
   245     0DBC                     	;# 
   246     0DBC                     	;# 
   247     0DBD                     	;# 
   248     0DBD                     	;# 
   249     0DBE                     	;# 
   250     0DBF                     	;# 
   251     0DC0                     	;# 
   252     0DC1                     	;# 
   253     0DC1                     	;# 
   254     0DC2                     	;# 
   255     0DC3                     	;# 
   256     0DC3                     	;# 
   257     0DC4                     	;# 
   258     0DC5                     	;# 
   259     0DC5                     	;# 
   260     0DC6                     	;# 
   261     0DC7                     	;# 
   262     0DC7                     	;# 
   263     0DC8                     	;# 
   264     0DC9                     	;# 
   265     0DC9                     	;# 
   266     0DCA                     	;# 
   267     0DCB                     	;# 
   268     0DCC                     	;# 
   269     0DCC                     	;# 
   270     0DCD                     	;# 
   271     0DCD                     	;# 
   272     0DCE                     	;# 
   273     0DCF                     	;# 
   274     0DD0                     	;# 
   275     0E0F                     	;# 
   276     0E10                     	;# 
   277     0E11                     	;# 
   278     0E12                     	;# 
   279     0E13                     	;# 
   280     0E14                     	;# 
   281     0E15                     	;# 
   282     0E16                     	;# 
   283     0E17                     	;# 
   284     0E90                     	;# 
   285     0E91                     	;# 
   286     0E92                     	;# 
   287     0E94                     	;# 
   288     0E95                     	;# 
   289     0E9C                     	;# 
   290     0E9D                     	;# 
   291     0E9E                     	;# 
   292     0E9F                     	;# 
   293     0EA0                     	;# 
   294     0EA1                     	;# 
   295     0EA2                     	;# 
   296     0EA3                     	;# 
   297     0EA4                     	;# 
   298     0EA5                     	;# 
   299     0EA6                     	;# 
   300     0EA7                     	;# 
   301     0FE4                     	;# 
   302     0FE5                     	;# 
   303     0FE6                     	;# 
   304     0FE7                     	;# 
   305     0FE8                     	;# 
   306     0FE8                     	;# 
   307     0FE9                     	;# 
   308     0FEA                     	;# 
   309     0FEA                     	;# 
   310     0FEB                     	;# 
   311     0FED                     	;# 
   312     0FEE                     	;# 
   313     0FEE                     	;# 
   314     0FEF                     	;# 
   315     0000                     	;# 
   316     0001                     	;# 
   317     0002                     	;# 
   318     0003                     	;# 
   319     0004                     	;# 
   320     0005                     	;# 
   321     0006                     	;# 
   322     0007                     	;# 
   323     0008                     	;# 
   324     0009                     	;# 
   325     000A                     	;# 
   326     000B                     	;# 
   327     000C                     	;# 
   328     000D                     	;# 
   329     000E                     	;# 
   330     0011                     	;# 
   331     0012                     	;# 
   332     0013                     	;# 
   333     0015                     	;# 
   334     0016                     	;# 
   335     0016                     	;# 
   336     0017                     	;# 
   337     0018                     	;# 
   338     0019                     	;# 
   339     001A                     	;# 
   340     001B                     	;# 
   341     001C                     	;# 
   342     008C                     	;# 
   343     008D                     	;# 
   344     008E                     	;# 
   345     0091                     	;# 
   346     0092                     	;# 
   347     0093                     	;# 
   348     0095                     	;# 
   349     0096                     	;# 
   350     0097                     	;# 
   351     0098                     	;# 
   352     0099                     	;# 
   353     009A                     	;# 
   354     009B                     	;# 
   355     009B                     	;# 
   356     009C                     	;# 
   357     009D                     	;# 
   358     009E                     	;# 
   359     009F                     	;# 
   360     010C                     	;# 
   361     010D                     	;# 
   362     010E                     	;# 
   363     0111                     	;# 
   364     0112                     	;# 
   365     0113                     	;# 
   366     0114                     	;# 
   367     0115                     	;# 
   368     0116                     	;# 
   369     0117                     	;# 
   370     0118                     	;# 
   371     0119                     	;# 
   372     018C                     	;# 
   373     018D                     	;# 
   374     018E                     	;# 
   375     0191                     	;# 
   376     0191                     	;# 
   377     0192                     	;# 
   378     0193                     	;# 
   379     0193                     	;# 
   380     0194                     	;# 
   381     0195                     	;# 
   382     0196                     	;# 
   383     0197                     	;# 
   384     0199                     	;# 
   385     019A                     	;# 
   386     019B                     	;# 
   387     019B                     	;# 
   388     019C                     	;# 
   389     019D                     	;# 
   390     019E                     	;# 
   391     019F                     	;# 
   392     020C                     	;# 
   393     020D                     	;# 
   394     020E                     	;# 
   395     028C                     	;# 
   396     028D                     	;# 
   397     028E                     	;# 
   398     030C                     	;# 
   399     030D                     	;# 
   400     030E                     	;# 
   401     038C                     	;# 
   402     038D                     	;# 
   403     038E                     	;# 
   404     0391                     	;# 
   405     0392                     	;# 
   406     0393                     	;# 
   407     0394                     	;# 
   408     0395                     	;# 
   409     0396                     	;# 
   410     0397                     	;# 
   411     0398                     	;# 
   412     0399                     	;# 
   413     0691                     	;# 
   414     0692                     	;# 
   415     0693                     	;# 
   416     0694                     	;# 
   417     0695                     	;# 
   418     0D8E                     	;# 
   419     0D8F                     	;# 
   420     0D90                     	;# 
   421     0D91                     	;# 
   422     0D91                     	;# 
   423     0D92                     	;# 
   424     0D93                     	;# 
   425     0D93                     	;# 
   426     0D94                     	;# 
   427     0D95                     	;# 
   428     0D95                     	;# 
   429     0D96                     	;# 
   430     0D97                     	;# 
   431     0D97                     	;# 
   432     0D98                     	;# 
   433     0D99                     	;# 
   434     0D99                     	;# 
   435     0D9A                     	;# 
   436     0D9B                     	;# 
   437     0D9C                     	;# 
   438     0D9C                     	;# 
   439     0D9D                     	;# 
   440     0D9D                     	;# 
   441     0D9E                     	;# 
   442     0D9F                     	;# 
   443     0DA0                     	;# 
   444     0DA1                     	;# 
   445     0DA1                     	;# 
   446     0DA2                     	;# 
   447     0DA3                     	;# 
   448     0DA3                     	;# 
   449     0DA4                     	;# 
   450     0DA5                     	;# 
   451     0DA5                     	;# 
   452     0DA6                     	;# 
   453     0DA7                     	;# 
   454     0DA7                     	;# 
   455     0DA8                     	;# 
   456     0DA9                     	;# 
   457     0DA9                     	;# 
   458     0DAA                     	;# 
   459     0DAB                     	;# 
   460     0DAC                     	;# 
   461     0DAC                     	;# 
   462     0DAD                     	;# 
   463     0DAD                     	;# 
   464     0DAE                     	;# 
   465     0DAF                     	;# 
   466     0DB0                     	;# 
   467     0DB1                     	;# 
   468     0DB1                     	;# 
   469     0DB2                     	;# 
   470     0DB3                     	;# 
   471     0DB3                     	;# 
   472     0DB4                     	;# 
   473     0DB5                     	;# 
   474     0DB5                     	;# 
   475     0DB6                     	;# 
   476     0DB7                     	;# 
   477     0DB7                     	;# 
   478     0DB8                     	;# 
   479     0DB9                     	;# 
   480     0DB9                     	;# 
   481     0DBA                     	;# 
   482     0DBB                     	;# 
   483     0DBC                     	;# 
   484     0DBC                     	;# 
   485     0DBD                     	;# 
   486     0DBD                     	;# 
   487     0DBE                     	;# 
   488     0DBF                     	;# 
   489     0DC0                     	;# 
   490     0DC1                     	;# 
   491     0DC1                     	;# 
   492     0DC2                     	;# 
   493     0DC3                     	;# 
   494     0DC3                     	;# 
   495     0DC4                     	;# 
   496     0DC5                     	;# 
   497     0DC5                     	;# 
   498     0DC6                     	;# 
   499     0DC7                     	;# 
   500     0DC7                     	;# 
   501     0DC8                     	;# 
   502     0DC9                     	;# 
   503     0DC9                     	;# 
   504     0DCA                     	;# 
   505     0DCB                     	;# 
   506     0DCC                     	;# 
   507     0DCC                     	;# 
   508     0DCD                     	;# 
   509     0DCD                     	;# 
   510     0DCE                     	;# 
   511     0DCF                     	;# 
   512     0DD0                     	;# 
   513     0E0F                     	;# 
   514     0E10                     	;# 
   515     0E11                     	;# 
   516     0E12                     	;# 
   517     0E13                     	;# 
   518     0E14                     	;# 
   519     0E15                     	;# 
   520     0E16                     	;# 
   521     0E17                     	;# 
   522     0E90                     	;# 
   523     0E91                     	;# 
   524     0E92                     	;# 
   525     0E94                     	;# 
   526     0E95                     	;# 
   527     0E9C                     	;# 
   528     0E9D                     	;# 
   529     0E9E                     	;# 
   530     0E9F                     	;# 
   531     0EA0                     	;# 
   532     0EA1                     	;# 
   533     0EA2                     	;# 
   534     0EA3                     	;# 
   535     0EA4                     	;# 
   536     0EA5                     	;# 
   537     0EA6                     	;# 
   538     0EA7                     	;# 
   539     0FE4                     	;# 
   540     0FE5                     	;# 
   541     0FE6                     	;# 
   542     0FE7                     	;# 
   543     0FE8                     	;# 
   544     0FE8                     	;# 
   545     0FE9                     	;# 
   546     0FEA                     	;# 
   547     0FEA                     	;# 
   548     0FEB                     	;# 
   549     0FED                     	;# 
   550     0FEE                     	;# 
   551     0FEE                     	;# 
   552     0FEF                     	;# 
   553     0000                     	;# 
   554     0001                     	;# 
   555     0002                     	;# 
   556     0003                     	;# 
   557     0004                     	;# 
   558     0005                     	;# 
   559     0006                     	;# 
   560     0007                     	;# 
   561     0008                     	;# 
   562     0009                     	;# 
   563     000A                     	;# 
   564     000B                     	;# 
   565     000C                     	;# 
   566     000D                     	;# 
   567     000E                     	;# 
   568     0011                     	;# 
   569     0012                     	;# 
   570     0013                     	;# 
   571     0015                     	;# 
   572     0016                     	;# 
   573     0016                     	;# 
   574     0017                     	;# 
   575     0018                     	;# 
   576     0019                     	;# 
   577     001A                     	;# 
   578     001B                     	;# 
   579     001C                     	;# 
   580     008C                     	;# 
   581     008D                     	;# 
   582     008E                     	;# 
   583     0091                     	;# 
   584     0092                     	;# 
   585     0093                     	;# 
   586     0095                     	;# 
   587     0096                     	;# 
   588     0097                     	;# 
   589     0098                     	;# 
   590     0099                     	;# 
   591     009A                     	;# 
   592     009B                     	;# 
   593     009B                     	;# 
   594     009C                     	;# 
   595     009D                     	;# 
   596     009E                     	;# 
   597     009F                     	;# 
   598     010C                     	;# 
   599     010D                     	;# 
   600     010E                     	;# 
   601     0111                     	;# 
   602     0112                     	;# 
   603     0113                     	;# 
   604     0114                     	;# 
   605     0115                     	;# 
   606     0116                     	;# 
   607     0117                     	;# 
   608     0118                     	;# 
   609     0119                     	;# 
   610     018C                     	;# 
   611     018D                     	;# 
   612     018E                     	;# 
   613     0191                     	;# 
   614     0191                     	;# 
   615     0192                     	;# 
   616     0193                     	;# 
   617     0193                     	;# 
   618     0194                     	;# 
   619     0195                     	;# 
   620     0196                     	;# 
   621     0197                     	;# 
   622     0199                     	;# 
   623     019A                     	;# 
   624     019B                     	;# 
   625     019B                     	;# 
   626     019C                     	;# 
   627     019D                     	;# 
   628     019E                     	;# 
   629     019F                     	;# 
   630     020C                     	;# 
   631     020D                     	;# 
   632     020E                     	;# 
   633     028C                     	;# 
   634     028D                     	;# 
   635     028E                     	;# 
   636     030C                     	;# 
   637     030D                     	;# 
   638     030E                     	;# 
   639     038C                     	;# 
   640     038D                     	;# 
   641     038E                     	;# 
   642     0391                     	;# 
   643     0392                     	;# 
   644     0393                     	;# 
   645     0394                     	;# 
   646     0395                     	;# 
   647     0396                     	;# 
   648     0397                     	;# 
   649     0398                     	;# 
   650     0399                     	;# 
   651     0691                     	;# 
   652     0692                     	;# 
   653     0693                     	;# 
   654     0694                     	;# 
   655     0695                     	;# 
   656     0D8E                     	;# 
   657     0D8F                     	;# 
   658     0D90                     	;# 
   659     0D91                     	;# 
   660     0D91                     	;# 
   661     0D92                     	;# 
   662     0D93                     	;# 
   663     0D93                     	;# 
   664     0D94                     	;# 
   665     0D95                     	;# 
   666     0D95                     	;# 
   667     0D96                     	;# 
   668     0D97                     	;# 
   669     0D97                     	;# 
   670     0D98                     	;# 
   671     0D99                     	;# 
   672     0D99                     	;# 
   673     0D9A                     	;# 
   674     0D9B                     	;# 
   675     0D9C                     	;# 
   676     0D9C                     	;# 
   677     0D9D                     	;# 
   678     0D9D                     	;# 
   679     0D9E                     	;# 
   680     0D9F                     	;# 
   681     0DA0                     	;# 
   682     0DA1                     	;# 
   683     0DA1                     	;# 
   684     0DA2                     	;# 
   685     0DA3                     	;# 
   686     0DA3                     	;# 
   687     0DA4                     	;# 
   688     0DA5                     	;# 
   689     0DA5                     	;# 
   690     0DA6                     	;# 
   691     0DA7                     	;# 
   692     0DA7                     	;# 
   693     0DA8                     	;# 
   694     0DA9                     	;# 
   695     0DA9                     	;# 
   696     0DAA                     	;# 
   697     0DAB                     	;# 
   698     0DAC                     	;# 
   699     0DAC                     	;# 
   700     0DAD                     	;# 
   701     0DAD                     	;# 
   702     0DAE                     	;# 
   703     0DAF                     	;# 
   704     0DB0                     	;# 
   705     0DB1                     	;# 
   706     0DB1                     	;# 
   707     0DB2                     	;# 
   708     0DB3                     	;# 
   709     0DB3                     	;# 
   710     0DB4                     	;# 
   711     0DB5                     	;# 
   712     0DB5                     	;# 
   713     0DB6                     	;# 
   714     0DB7                     	;# 
   715     0DB7                     	;# 
   716     0DB8                     	;# 
   717     0DB9                     	;# 
   718     0DB9                     	;# 
   719     0DBA                     	;# 
   720     0DBB                     	;# 
   721     0DBC                     	;# 
   722     0DBC                     	;# 
   723     0DBD                     	;# 
   724     0DBD                     	;# 
   725     0DBE                     	;# 
   726     0DBF                     	;# 
   727     0DC0                     	;# 
   728     0DC1                     	;# 
   729     0DC1                     	;# 
   730     0DC2                     	;# 
   731     0DC3                     	;# 
   732     0DC3                     	;# 
   733     0DC4                     	;# 
   734     0DC5                     	;# 
   735     0DC5                     	;# 
   736     0DC6                     	;# 
   737     0DC7                     	;# 
   738     0DC7                     	;# 
   739     0DC8                     	;# 
   740     0DC9                     	;# 
   741     0DC9                     	;# 
   742     0DCA                     	;# 
   743     0DCB                     	;# 
   744     0DCC                     	;# 
   745     0DCC                     	;# 
   746     0DCD                     	;# 
   747     0DCD                     	;# 
   748     0DCE                     	;# 
   749     0DCF                     	;# 
   750     0DD0                     	;# 
   751     0E0F                     	;# 
   752     0E10                     	;# 
   753     0E11                     	;# 
   754     0E12                     	;# 
   755     0E13                     	;# 
   756     0E14                     	;# 
   757     0E15                     	;# 
   758     0E16                     	;# 
   759     0E17                     	;# 
   760     0E90                     	;# 
   761     0E91                     	;# 
   762     0E92                     	;# 
   763     0E94                     	;# 
   764     0E95                     	;# 
   765     0E9C                     	;# 
   766     0E9D                     	;# 
   767     0E9E                     	;# 
   768     0E9F                     	;# 
   769     0EA0                     	;# 
   770     0EA1                     	;# 
   771     0EA2                     	;# 
   772     0EA3                     	;# 
   773     0EA4                     	;# 
   774     0EA5                     	;# 
   775     0EA6                     	;# 
   776     0EA7                     	;# 
   777     0FE4                     	;# 
   778     0FE5                     	;# 
   779     0FE6                     	;# 
   780     0FE7                     	;# 
   781     0FE8                     	;# 
   782     0FE8                     	;# 
   783     0FE9                     	;# 
   784     0FEA                     	;# 
   785     0FEA                     	;# 
   786     0FEB                     	;# 
   787     0FED                     	;# 
   788     0FEE                     	;# 
   789     0FEE                     	;# 
   790     0FEF                     	;# 
   791     0000                     	;# 
   792     0001                     	;# 
   793     0002                     	;# 
   794     0003                     	;# 
   795     0004                     	;# 
   796     0005                     	;# 
   797     0006                     	;# 
   798     0007                     	;# 
   799     0008                     	;# 
   800     0009                     	;# 
   801     000A                     	;# 
   802     000B                     	;# 
   803     000C                     	;# 
   804     000D                     	;# 
   805     000E                     	;# 
   806     0011                     	;# 
   807     0012                     	;# 
   808     0013                     	;# 
   809     0015                     	;# 
   810     0016                     	;# 
   811     0016                     	;# 
   812     0017                     	;# 
   813     0018                     	;# 
   814     0019                     	;# 
   815     001A                     	;# 
   816     001B                     	;# 
   817     001C                     	;# 
   818     008C                     	;# 
   819     008D                     	;# 
   820     008E                     	;# 
   821     0091                     	;# 
   822     0092                     	;# 
   823     0093                     	;# 
   824     0095                     	;# 
   825     0096                     	;# 
   826     0097                     	;# 
   827     0098                     	;# 
   828     0099                     	;# 
   829     009A                     	;# 
   830     009B                     	;# 
   831     009B                     	;# 
   832     009C                     	;# 
   833     009D                     	;# 
   834     009E                     	;# 
   835     009F                     	;# 
   836     010C                     	;# 
   837     010D                     	;# 
   838     010E                     	;# 
   839     0111                     	;# 
   840     0112                     	;# 
   841     0113                     	;# 
   842     0114                     	;# 
   843     0115                     	;# 
   844     0116                     	;# 
   845     0117                     	;# 
   846     0118                     	;# 
   847     0119                     	;# 
   848     018C                     	;# 
   849     018D                     	;# 
   850     018E                     	;# 
   851     0191                     	;# 
   852     0191                     	;# 
   853     0192                     	;# 
   854     0193                     	;# 
   855     0193                     	;# 
   856     0194                     	;# 
   857     0195                     	;# 
   858     0196                     	;# 
   859     0197                     	;# 
   860     0199                     	;# 
   861     019A                     	;# 
   862     019B                     	;# 
   863     019B                     	;# 
   864     019C                     	;# 
   865     019D                     	;# 
   866     019E                     	;# 
   867     019F                     	;# 
   868     020C                     	;# 
   869     020D                     	;# 
   870     020E                     	;# 
   871     028C                     	;# 
   872     028D                     	;# 
   873     028E                     	;# 
   874     030C                     	;# 
   875     030D                     	;# 
   876     030E                     	;# 
   877     038C                     	;# 
   878     038D                     	;# 
   879     038E                     	;# 
   880     0391                     	;# 
   881     0392                     	;# 
   882     0393                     	;# 
   883     0394                     	;# 
   884     0395                     	;# 
   885     0396                     	;# 
   886     0397                     	;# 
   887     0398                     	;# 
   888     0399                     	;# 
   889     0691                     	;# 
   890     0692                     	;# 
   891     0693                     	;# 
   892     0694                     	;# 
   893     0695                     	;# 
   894     0D8E                     	;# 
   895     0D8F                     	;# 
   896     0D90                     	;# 
   897     0D91                     	;# 
   898     0D91                     	;# 
   899     0D92                     	;# 
   900     0D93                     	;# 
   901     0D93                     	;# 
   902     0D94                     	;# 
   903     0D95                     	;# 
   904     0D95                     	;# 
   905     0D96                     	;# 
   906     0D97                     	;# 
   907     0D97                     	;# 
   908     0D98                     	;# 
   909     0D99                     	;# 
   910     0D99                     	;# 
   911     0D9A                     	;# 
   912     0D9B                     	;# 
   913     0D9C                     	;# 
   914     0D9C                     	;# 
   915     0D9D                     	;# 
   916     0D9D                     	;# 
   917     0D9E                     	;# 
   918     0D9F                     	;# 
   919     0DA0                     	;# 
   920     0DA1                     	;# 
   921     0DA1                     	;# 
   922     0DA2                     	;# 
   923     0DA3                     	;# 
   924     0DA3                     	;# 
   925     0DA4                     	;# 
   926     0DA5                     	;# 
   927     0DA5                     	;# 
   928     0DA6                     	;# 
   929     0DA7                     	;# 
   930     0DA7                     	;# 
   931     0DA8                     	;# 
   932     0DA9                     	;# 
   933     0DA9                     	;# 
   934     0DAA                     	;# 
   935     0DAB                     	;# 
   936     0DAC                     	;# 
   937     0DAC                     	;# 
   938     0DAD                     	;# 
   939     0DAD                     	;# 
   940     0DAE                     	;# 
   941     0DAF                     	;# 
   942     0DB0                     	;# 
   943     0DB1                     	;# 
   944     0DB1                     	;# 
   945     0DB2                     	;# 
   946     0DB3                     	;# 
   947     0DB3                     	;# 
   948     0DB4                     	;# 
   949     0DB5                     	;# 
   950     0DB5                     	;# 
   951     0DB6                     	;# 
   952     0DB7                     	;# 
   953     0DB7                     	;# 
   954     0DB8                     	;# 
   955     0DB9                     	;# 
   956     0DB9                     	;# 
   957     0DBA                     	;# 
   958     0DBB                     	;# 
   959     0DBC                     	;# 
   960     0DBC                     	;# 
   961     0DBD                     	;# 
   962     0DBD                     	;# 
   963     0DBE                     	;# 
   964     0DBF                     	;# 
   965     0DC0                     	;# 
   966     0DC1                     	;# 
   967     0DC1                     	;# 
   968     0DC2                     	;# 
   969     0DC3                     	;# 
   970     0DC3                     	;# 
   971     0DC4                     	;# 
   972     0DC5                     	;# 
   973     0DC5                     	;# 
   974     0DC6                     	;# 
   975     0DC7                     	;# 
   976     0DC7                     	;# 
   977     0DC8                     	;# 
   978     0DC9                     	;# 
   979     0DC9                     	;# 
   980     0DCA                     	;# 
   981     0DCB                     	;# 
   982     0DCC                     	;# 
   983     0DCC                     	;# 
   984     0DCD                     	;# 
   985     0DCD                     	;# 
   986     0DCE                     	;# 
   987     0DCF                     	;# 
   988     0DD0                     	;# 
   989     0E0F                     	;# 
   990     0E10                     	;# 
   991     0E11                     	;# 
   992     0E12                     	;# 
   993     0E13                     	;# 
   994     0E14                     	;# 
   995     0E15                     	;# 
   996     0E16                     	;# 
   997     0E17                     	;# 
   998     0E90                     	;# 
   999     0E91                     	;# 
  1000     0E92                     	;# 
  1001     0E94                     	;# 
  1002     0E95                     	;# 
  1003     0E9C                     	;# 
  1004     0E9D                     	;# 
  1005     0E9E                     	;# 
  1006     0E9F                     	;# 
  1007     0EA0                     	;# 
  1008     0EA1                     	;# 
  1009     0EA2                     	;# 
  1010     0EA3                     	;# 
  1011     0EA4                     	;# 
  1012     0EA5                     	;# 
  1013     0EA6                     	;# 
  1014     0EA7                     	;# 
  1015     0FE4                     	;# 
  1016     0FE5                     	;# 
  1017     0FE6                     	;# 
  1018     0FE7                     	;# 
  1019     0FE8                     	;# 
  1020     0FE8                     	;# 
  1021     0FE9                     	;# 
  1022     0FEA                     	;# 
  1023     0FEA                     	;# 
  1024     0FEB                     	;# 
  1025     0FED                     	;# 
  1026     0FEE                     	;# 
  1027     0FEE                     	;# 
  1028     0FEF                     	;# 
  1029     0000                     	;# 
  1030     0001                     	;# 
  1031     0002                     	;# 
  1032     0003                     	;# 
  1033     0004                     	;# 
  1034     0005                     	;# 
  1035     0006                     	;# 
  1036     0007                     	;# 
  1037     0008                     	;# 
  1038     0009                     	;# 
  1039     000A                     	;# 
  1040     000B                     	;# 
  1041     000C                     	;# 
  1042     000D                     	;# 
  1043     000E                     	;# 
  1044     0011                     	;# 
  1045     0012                     	;# 
  1046     0013                     	;# 
  1047     0015                     	;# 
  1048     0016                     	;# 
  1049     0016                     	;# 
  1050     0017                     	;# 
  1051     0018                     	;# 
  1052     0019                     	;# 
  1053     001A                     	;# 
  1054     001B                     	;# 
  1055     001C                     	;# 
  1056     008C                     	;# 
  1057     008D                     	;# 
  1058     008E                     	;# 
  1059     0091                     	;# 
  1060     0092                     	;# 
  1061     0093                     	;# 
  1062     0095                     	;# 
  1063     0096                     	;# 
  1064     0097                     	;# 
  1065     0098                     	;# 
  1066     0099                     	;# 
  1067     009A                     	;# 
  1068     009B                     	;# 
  1069     009B                     	;# 
  1070     009C                     	;# 
  1071     009D                     	;# 
  1072     009E                     	;# 
  1073     009F                     	;# 
  1074     010C                     	;# 
  1075     010D                     	;# 
  1076     010E                     	;# 
  1077     0111                     	;# 
  1078     0112                     	;# 
  1079     0113                     	;# 
  1080     0114                     	;# 
  1081     0115                     	;# 
  1082     0116                     	;# 
  1083     0117                     	;# 
  1084     0118                     	;# 
  1085     0119                     	;# 
  1086     018C                     	;# 
  1087     018D                     	;# 
  1088     018E                     	;# 
  1089     0191                     	;# 
  1090     0191                     	;# 
  1091     0192                     	;# 
  1092     0193                     	;# 
  1093     0193                     	;# 
  1094     0194                     	;# 
  1095     0195                     	;# 
  1096     0196                     	;# 
  1097     0197                     	;# 
  1098     0199                     	;# 
  1099     019A                     	;# 
  1100     019B                     	;# 
  1101     019B                     	;# 
  1102     019C                     	;# 
  1103     019D                     	;# 
  1104     019E                     	;# 
  1105     019F                     	;# 
  1106     020C                     	;# 
  1107     020D                     	;# 
  1108     020E                     	;# 
  1109     028C                     	;# 
  1110     028D                     	;# 
  1111     028E                     	;# 
  1112     030C                     	;# 
  1113     030D                     	;# 
  1114     030E                     	;# 
  1115     038C                     	;# 
  1116     038D                     	;# 
  1117     038E                     	;# 
  1118     0391                     	;# 
  1119     0392                     	;# 
  1120     0393                     	;# 
  1121     0394                     	;# 
  1122     0395                     	;# 
  1123     0396                     	;# 
  1124     0397                     	;# 
  1125     0398                     	;# 
  1126     0399                     	;# 
  1127     0691                     	;# 
  1128     0692                     	;# 
  1129     0693                     	;# 
  1130     0694                     	;# 
  1131     0695                     	;# 
  1132     0D8E                     	;# 
  1133     0D8F                     	;# 
  1134     0D90                     	;# 
  1135     0D91                     	;# 
  1136     0D91                     	;# 
  1137     0D92                     	;# 
  1138     0D93                     	;# 
  1139     0D93                     	;# 
  1140     0D94                     	;# 
  1141     0D95                     	;# 
  1142     0D95                     	;# 
  1143     0D96                     	;# 
  1144     0D97                     	;# 
  1145     0D97                     	;# 
  1146     0D98                     	;# 
  1147     0D99                     	;# 
  1148     0D99                     	;# 
  1149     0D9A                     	;# 
  1150     0D9B                     	;# 
  1151     0D9C                     	;# 
  1152     0D9C                     	;# 
  1153     0D9D                     	;# 
  1154     0D9D                     	;# 
  1155     0D9E                     	;# 
  1156     0D9F                     	;# 
  1157     0DA0                     	;# 
  1158     0DA1                     	;# 
  1159     0DA1                     	;# 
  1160     0DA2                     	;# 
  1161     0DA3                     	;# 
  1162     0DA3                     	;# 
  1163     0DA4                     	;# 
  1164     0DA5                     	;# 
  1165     0DA5                     	;# 
  1166     0DA6                     	;# 
  1167     0DA7                     	;# 
  1168     0DA7                     	;# 
  1169     0DA8                     	;# 
  1170     0DA9                     	;# 
  1171     0DA9                     	;# 
  1172     0DAA                     	;# 
  1173     0DAB                     	;# 
  1174     0DAC                     	;# 
  1175     0DAC                     	;# 
  1176     0DAD                     	;# 
  1177     0DAD                     	;# 
  1178     0DAE                     	;# 
  1179     0DAF                     	;# 
  1180     0DB0                     	;# 
  1181     0DB1                     	;# 
  1182     0DB1                     	;# 
  1183     0DB2                     	;# 
  1184     0DB3                     	;# 
  1185     0DB3                     	;# 
  1186     0DB4                     	;# 
  1187     0DB5                     	;# 
  1188     0DB5                     	;# 
  1189     0DB6                     	;# 
  1190     0DB7                     	;# 
  1191     0DB7                     	;# 
  1192     0DB8                     	;# 
  1193     0DB9                     	;# 
  1194     0DB9                     	;# 
  1195     0DBA                     	;# 
  1196     0DBB                     	;# 
  1197     0DBC                     	;# 
  1198     0DBC                     	;# 
  1199     0DBD                     	;# 
  1200     0DBD                     	;# 
  1201     0DBE                     	;# 
  1202     0DBF                     	;# 
  1203     0DC0                     	;# 
  1204     0DC1                     	;# 
  1205     0DC1                     	;# 
  1206     0DC2                     	;# 
  1207     0DC3                     	;# 
  1208     0DC3                     	;# 
  1209     0DC4                     	;# 
  1210     0DC5                     	;# 
  1211     0DC5                     	;# 
  1212     0DC6                     	;# 
  1213     0DC7                     	;# 
  1214     0DC7                     	;# 
  1215     0DC8                     	;# 
  1216     0DC9                     	;# 
  1217     0DC9                     	;# 
  1218     0DCA                     	;# 
  1219     0DCB                     	;# 
  1220     0DCC                     	;# 
  1221     0DCC                     	;# 
  1222     0DCD                     	;# 
  1223     0DCD                     	;# 
  1224     0DCE                     	;# 
  1225     0DCF                     	;# 
  1226     0DD0                     	;# 
  1227     0E0F                     	;# 
  1228     0E10                     	;# 
  1229     0E11                     	;# 
  1230     0E12                     	;# 
  1231     0E13                     	;# 
  1232     0E14                     	;# 
  1233     0E15                     	;# 
  1234     0E16                     	;# 
  1235     0E17                     	;# 
  1236     0E90                     	;# 
  1237     0E91                     	;# 
  1238     0E92                     	;# 
  1239     0E94                     	;# 
  1240     0E95                     	;# 
  1241     0E9C                     	;# 
  1242     0E9D                     	;# 
  1243     0E9E                     	;# 
  1244     0E9F                     	;# 
  1245     0EA0                     	;# 
  1246     0EA1                     	;# 
  1247     0EA2                     	;# 
  1248     0EA3                     	;# 
  1249     0EA4                     	;# 
  1250     0EA5                     	;# 
  1251     0EA6                     	;# 
  1252     0EA7                     	;# 
  1253     0FE4                     	;# 
  1254     0FE5                     	;# 
  1255     0FE6                     	;# 
  1256     0FE7                     	;# 
  1257     0FE8                     	;# 
  1258     0FE8                     	;# 
  1259     0FE9                     	;# 
  1260     0FEA                     	;# 
  1261     0FEA                     	;# 
  1262     0FEB                     	;# 
  1263     0FED                     	;# 
  1264     0FEE                     	;# 
  1265     0FEE                     	;# 
  1266     0FEF                     	;# 
  1267     0000                     	;# 
  1268     0001                     	;# 
  1269     0002                     	;# 
  1270     0003                     	;# 
  1271     0004                     	;# 
  1272     0005                     	;# 
  1273     0006                     	;# 
  1274     0007                     	;# 
  1275     0008                     	;# 
  1276     0009                     	;# 
  1277     000A                     	;# 
  1278     000B                     	;# 
  1279     000C                     	;# 
  1280     000D                     	;# 
  1281     000E                     	;# 
  1282     0011                     	;# 
  1283     0012                     	;# 
  1284     0013                     	;# 
  1285     0015                     	;# 
  1286     0016                     	;# 
  1287     0016                     	;# 
  1288     0017                     	;# 
  1289     0018                     	;# 
  1290     0019                     	;# 
  1291     001A                     	;# 
  1292     001B                     	;# 
  1293     001C                     	;# 
  1294     008C                     	;# 
  1295     008D                     	;# 
  1296     008E                     	;# 
  1297     0091                     	;# 
  1298     0092                     	;# 
  1299     0093                     	;# 
  1300     0095                     	;# 
  1301     0096                     	;# 
  1302     0097                     	;# 
  1303     0098                     	;# 
  1304     0099                     	;# 
  1305     009A                     	;# 
  1306     009B                     	;# 
  1307     009B                     	;# 
  1308     009C                     	;# 
  1309     009D                     	;# 
  1310     009E                     	;# 
  1311     009F                     	;# 
  1312     010C                     	;# 
  1313     010D                     	;# 
  1314     010E                     	;# 
  1315     0111                     	;# 
  1316     0112                     	;# 
  1317     0113                     	;# 
  1318     0114                     	;# 
  1319     0115                     	;# 
  1320     0116                     	;# 
  1321     0117                     	;# 
  1322     0118                     	;# 
  1323     0119                     	;# 
  1324     018C                     	;# 
  1325     018D                     	;# 
  1326     018E                     	;# 
  1327     0191                     	;# 
  1328     0191                     	;# 
  1329     0192                     	;# 
  1330     0193                     	;# 
  1331     0193                     	;# 
  1332     0194                     	;# 
  1333     0195                     	;# 
  1334     0196                     	;# 
  1335     0197                     	;# 
  1336     0199                     	;# 
  1337     019A                     	;# 
  1338     019B                     	;# 
  1339     019B                     	;# 
  1340     019C                     	;# 
  1341     019D                     	;# 
  1342     019E                     	;# 
  1343     019F                     	;# 
  1344     020C                     	;# 
  1345     020D                     	;# 
  1346     020E                     	;# 
  1347     028C                     	;# 
  1348     028D                     	;# 
  1349     028E                     	;# 
  1350     030C                     	;# 
  1351     030D                     	;# 
  1352     030E                     	;# 
  1353     038C                     	;# 
  1354     038D                     	;# 
  1355     038E                     	;# 
  1356     0391                     	;# 
  1357     0392                     	;# 
  1358     0393                     	;# 
  1359     0394                     	;# 
  1360     0395                     	;# 
  1361     0396                     	;# 
  1362     0397                     	;# 
  1363     0398                     	;# 
  1364     0399                     	;# 
  1365     0691                     	;# 
  1366     0692                     	;# 
  1367     0693                     	;# 
  1368     0694                     	;# 
  1369     0695                     	;# 
  1370     0D8E                     	;# 
  1371     0D8F                     	;# 
  1372     0D90                     	;# 
  1373     0D91                     	;# 
  1374     0D91                     	;# 
  1375     0D92                     	;# 
  1376     0D93                     	;# 
  1377     0D93                     	;# 
  1378     0D94                     	;# 
  1379     0D95                     	;# 
  1380     0D95                     	;# 
  1381     0D96                     	;# 
  1382     0D97                     	;# 
  1383     0D97                     	;# 
  1384     0D98                     	;# 
  1385     0D99                     	;# 
  1386     0D99                     	;# 
  1387     0D9A                     	;# 
  1388     0D9B                     	;# 
  1389     0D9C                     	;# 
  1390     0D9C                     	;# 
  1391     0D9D                     	;# 
  1392     0D9D                     	;# 
  1393     0D9E                     	;# 
  1394     0D9F                     	;# 
  1395     0DA0                     	;# 
  1396     0DA1                     	;# 
  1397     0DA1                     	;# 
  1398     0DA2                     	;# 
  1399     0DA3                     	;# 
  1400     0DA3                     	;# 
  1401     0DA4                     	;# 
  1402     0DA5                     	;# 
  1403     0DA5                     	;# 
  1404     0DA6                     	;# 
  1405     0DA7                     	;# 
  1406     0DA7                     	;# 
  1407     0DA8                     	;# 
  1408     0DA9                     	;# 
  1409     0DA9                     	;# 
  1410     0DAA                     	;# 
  1411     0DAB                     	;# 
  1412     0DAC                     	;# 
  1413     0DAC                     	;# 
  1414     0DAD                     	;# 
  1415     0DAD                     	;# 
  1416     0DAE                     	;# 
  1417     0DAF                     	;# 
  1418     0DB0                     	;# 
  1419     0DB1                     	;# 
  1420     0DB1                     	;# 
  1421     0DB2                     	;# 
  1422     0DB3                     	;# 
  1423     0DB3                     	;# 
  1424     0DB4                     	;# 
  1425     0DB5                     	;# 
  1426     0DB5                     	;# 
  1427     0DB6                     	;# 
  1428     0DB7                     	;# 
  1429     0DB7                     	;# 
  1430     0DB8                     	;# 
  1431     0DB9                     	;# 
  1432     0DB9                     	;# 
  1433     0DBA                     	;# 
  1434     0DBB                     	;# 
  1435     0DBC                     	;# 
  1436     0DBC                     	;# 
  1437     0DBD                     	;# 
  1438     0DBD                     	;# 
  1439     0DBE                     	;# 
  1440     0DBF                     	;# 
  1441     0DC0                     	;# 
  1442     0DC1                     	;# 
  1443     0DC1                     	;# 
  1444     0DC2                     	;# 
  1445     0DC3                     	;# 
  1446     0DC3                     	;# 
  1447     0DC4                     	;# 
  1448     0DC5                     	;# 
  1449     0DC5                     	;# 
  1450     0DC6                     	;# 
  1451     0DC7                     	;# 
  1452     0DC7                     	;# 
  1453     0DC8                     	;# 
  1454     0DC9                     	;# 
  1455     0DC9                     	;# 
  1456     0DCA                     	;# 
  1457     0DCB                     	;# 
  1458     0DCC                     	;# 
  1459     0DCC                     	;# 
  1460     0DCD                     	;# 
  1461     0DCD                     	;# 
  1462     0DCE                     	;# 
  1463     0DCF                     	;# 
  1464     0DD0                     	;# 
  1465     0E0F                     	;# 
  1466     0E10                     	;# 
  1467     0E11                     	;# 
  1468     0E12                     	;# 
  1469     0E13                     	;# 
  1470     0E14                     	;# 
  1471     0E15                     	;# 
  1472     0E16                     	;# 
  1473     0E17                     	;# 
  1474     0E90                     	;# 
  1475     0E91                     	;# 
  1476     0E92                     	;# 
  1477     0E94                     	;# 
  1478     0E95                     	;# 
  1479     0E9C                     	;# 
  1480     0E9D                     	;# 
  1481     0E9E                     	;# 
  1482     0E9F                     	;# 
  1483     0EA0                     	;# 
  1484     0EA1                     	;# 
  1485     0EA2                     	;# 
  1486     0EA3                     	;# 
  1487     0EA4                     	;# 
  1488     0EA5                     	;# 
  1489     0EA6                     	;# 
  1490     0EA7                     	;# 
  1491     0FE4                     	;# 
  1492     0FE5                     	;# 
  1493     0FE6                     	;# 
  1494     0FE7                     	;# 
  1495     0FE8                     	;# 
  1496     0FE8                     	;# 
  1497     0FE9                     	;# 
  1498     0FEA                     	;# 
  1499     0FEA                     	;# 
  1500     0FEB                     	;# 
  1501     0FED                     	;# 
  1502     0FEE                     	;# 
  1503     0FEE                     	;# 
  1504     0FEF                     	;# 
  1505     0000                     	;# 
  1506     0001                     	;# 
  1507     0002                     	;# 
  1508     0003                     	;# 
  1509     0004                     	;# 
  1510     0005                     	;# 
  1511     0006                     	;# 
  1512     0007                     	;# 
  1513     0008                     	;# 
  1514     0009                     	;# 
  1515     000A                     	;# 
  1516     000B                     	;# 
  1517     000C                     	;# 
  1518     000D                     	;# 
  1519     000E                     	;# 
  1520     0011                     	;# 
  1521     0012                     	;# 
  1522     0013                     	;# 
  1523     0015                     	;# 
  1524     0016                     	;# 
  1525     0016                     	;# 
  1526     0017                     	;# 
  1527     0018                     	;# 
  1528     0019                     	;# 
  1529     001A                     	;# 
  1530     001B                     	;# 
  1531     001C                     	;# 
  1532     008C                     	;# 
  1533     008D                     	;# 
  1534     008E                     	;# 
  1535     0091                     	;# 
  1536     0092                     	;# 
  1537     0093                     	;# 
  1538     0095                     	;# 
  1539     0096                     	;# 
  1540     0097                     	;# 
  1541     0098                     	;# 
  1542     0099                     	;# 
  1543     009A                     	;# 
  1544     009B                     	;# 
  1545     009B                     	;# 
  1546     009C                     	;# 
  1547     009D                     	;# 
  1548     009E                     	;# 
  1549     009F                     	;# 
  1550     010C                     	;# 
  1551     010D                     	;# 
  1552     010E                     	;# 
  1553     0111                     	;# 
  1554     0112                     	;# 
  1555     0113                     	;# 
  1556     0114                     	;# 
  1557     0115                     	;# 
  1558     0116                     	;# 
  1559     0117                     	;# 
  1560     0118                     	;# 
  1561     0119                     	;# 
  1562     018C                     	;# 
  1563     018D                     	;# 
  1564     018E                     	;# 
  1565     0191                     	;# 
  1566     0191                     	;# 
  1567     0192                     	;# 
  1568     0193                     	;# 
  1569     0193                     	;# 
  1570     0194                     	;# 
  1571     0195                     	;# 
  1572     0196                     	;# 
  1573     0197                     	;# 
  1574     0199                     	;# 
  1575     019A                     	;# 
  1576     019B                     	;# 
  1577     019B                     	;# 
  1578     019C                     	;# 
  1579     019D                     	;# 
  1580     019E                     	;# 
  1581     019F                     	;# 
  1582     020C                     	;# 
  1583     020D                     	;# 
  1584     020E                     	;# 
  1585     028C                     	;# 
  1586     028D                     	;# 
  1587     028E                     	;# 
  1588     030C                     	;# 
  1589     030D                     	;# 
  1590     030E                     	;# 
  1591     038C                     	;# 
  1592     038D                     	;# 
  1593     038E                     	;# 
  1594     0391                     	;# 
  1595     0392                     	;# 
  1596     0393                     	;# 
  1597     0394                     	;# 
  1598     0395                     	;# 
  1599     0396                     	;# 
  1600     0397                     	;# 
  1601     0398                     	;# 
  1602     0399                     	;# 
  1603     0691                     	;# 
  1604     0692                     	;# 
  1605     0693                     	;# 
  1606     0694                     	;# 
  1607     0695                     	;# 
  1608     0D8E                     	;# 
  1609     0D8F                     	;# 
  1610     0D90                     	;# 
  1611     0D91                     	;# 
  1612     0D91                     	;# 
  1613     0D92                     	;# 
  1614     0D93                     	;# 
  1615     0D93                     	;# 
  1616     0D94                     	;# 
  1617     0D95                     	;# 
  1618     0D95                     	;# 
  1619     0D96                     	;# 
  1620     0D97                     	;# 
  1621     0D97                     	;# 
  1622     0D98                     	;# 
  1623     0D99                     	;# 
  1624     0D99                     	;# 
  1625     0D9A                     	;# 
  1626     0D9B                     	;# 
  1627     0D9C                     	;# 
  1628     0D9C                     	;# 
  1629     0D9D                     	;# 
  1630     0D9D                     	;# 
  1631     0D9E                     	;# 
  1632     0D9F                     	;# 
  1633     0DA0                     	;# 
  1634     0DA1                     	;# 
  1635     0DA1                     	;# 
  1636     0DA2                     	;# 
  1637     0DA3                     	;# 
  1638     0DA3                     	;# 
  1639     0DA4                     	;# 
  1640     0DA5                     	;# 
  1641     0DA5                     	;# 
  1642     0DA6                     	;# 
  1643     0DA7                     	;# 
  1644     0DA7                     	;# 
  1645     0DA8                     	;# 
  1646     0DA9                     	;# 
  1647     0DA9                     	;# 
  1648     0DAA                     	;# 
  1649     0DAB                     	;# 
  1650     0DAC                     	;# 
  1651     0DAC                     	;# 
  1652     0DAD                     	;# 
  1653     0DAD                     	;# 
  1654     0DAE                     	;# 
  1655     0DAF                     	;# 
  1656     0DB0                     	;# 
  1657     0DB1                     	;# 
  1658     0DB1                     	;# 
  1659     0DB2                     	;# 
  1660     0DB3                     	;# 
  1661     0DB3                     	;# 
  1662     0DB4                     	;# 
  1663     0DB5                     	;# 
  1664     0DB5                     	;# 
  1665     0DB6                     	;# 
  1666     0DB7                     	;# 
  1667     0DB7                     	;# 
  1668     0DB8                     	;# 
  1669     0DB9                     	;# 
  1670     0DB9                     	;# 
  1671     0DBA                     	;# 
  1672     0DBB                     	;# 
  1673     0DBC                     	;# 
  1674     0DBC                     	;# 
  1675     0DBD                     	;# 
  1676     0DBD                     	;# 
  1677     0DBE                     	;# 
  1678     0DBF                     	;# 
  1679     0DC0                     	;# 
  1680     0DC1                     	;# 
  1681     0DC1                     	;# 
  1682     0DC2                     	;# 
  1683     0DC3                     	;# 
  1684     0DC3                     	;# 
  1685     0DC4                     	;# 
  1686     0DC5                     	;# 
  1687     0DC5                     	;# 
  1688     0DC6                     	;# 
  1689     0DC7                     	;# 
  1690     0DC7                     	;# 
  1691     0DC8                     	;# 
  1692     0DC9                     	;# 
  1693     0DC9                     	;# 
  1694     0DCA                     	;# 
  1695     0DCB                     	;# 
  1696     0DCC                     	;# 
  1697     0DCC                     	;# 
  1698     0DCD                     	;# 
  1699     0DCD                     	;# 
  1700     0DCE                     	;# 
  1701     0DCF                     	;# 
  1702     0DD0                     	;# 
  1703     0E0F                     	;# 
  1704     0E10                     	;# 
  1705     0E11                     	;# 
  1706     0E12                     	;# 
  1707     0E13                     	;# 
  1708     0E14                     	;# 
  1709     0E15                     	;# 
  1710     0E16                     	;# 
  1711     0E17                     	;# 
  1712     0E90                     	;# 
  1713     0E91                     	;# 
  1714     0E92                     	;# 
  1715     0E94                     	;# 
  1716     0E95                     	;# 
  1717     0E9C                     	;# 
  1718     0E9D                     	;# 
  1719     0E9E                     	;# 
  1720     0E9F                     	;# 
  1721     0EA0                     	;# 
  1722     0EA1                     	;# 
  1723     0EA2                     	;# 
  1724     0EA3                     	;# 
  1725     0EA4                     	;# 
  1726     0EA5                     	;# 
  1727     0EA6                     	;# 
  1728     0EA7                     	;# 
  1729     0FE4                     	;# 
  1730     0FE5                     	;# 
  1731     0FE6                     	;# 
  1732     0FE7                     	;# 
  1733     0FE8                     	;# 
  1734     0FE8                     	;# 
  1735     0FE9                     	;# 
  1736     0FEA                     	;# 
  1737     0FEA                     	;# 
  1738     0FEB                     	;# 
  1739     0FED                     	;# 
  1740     0FEE                     	;# 
  1741     0FEE                     	;# 
  1742     0FEF                     	;# 
  1743     0000                     	;# 
  1744     0001                     	;# 
  1745     0002                     	;# 
  1746     0003                     	;# 
  1747     0004                     	;# 
  1748     0005                     	;# 
  1749     0006                     	;# 
  1750     0007                     	;# 
  1751     0008                     	;# 
  1752     0009                     	;# 
  1753     000A                     	;# 
  1754     000B                     	;# 
  1755     000C                     	;# 
  1756     000D                     	;# 
  1757     000E                     	;# 
  1758     0011                     	;# 
  1759     0012                     	;# 
  1760     0013                     	;# 
  1761     0015                     	;# 
  1762     0016                     	;# 
  1763     0016                     	;# 
  1764     0017                     	;# 
  1765     0018                     	;# 
  1766     0019                     	;# 
  1767     001A                     	;# 
  1768     001B                     	;# 
  1769     001C                     	;# 
  1770     008C                     	;# 
  1771     008D                     	;# 
  1772     008E                     	;# 
  1773     0091                     	;# 
  1774     0092                     	;# 
  1775     0093                     	;# 
  1776     0095                     	;# 
  1777     0096                     	;# 
  1778     0097                     	;# 
  1779     0098                     	;# 
  1780     0099                     	;# 
  1781     009A                     	;# 
  1782     009B                     	;# 
  1783     009B                     	;# 
  1784     009C                     	;# 
  1785     009D                     	;# 
  1786     009E                     	;# 
  1787     009F                     	;# 
  1788     010C                     	;# 
  1789     010D                     	;# 
  1790     010E                     	;# 
  1791     0111                     	;# 
  1792     0112                     	;# 
  1793     0113                     	;# 
  1794     0114                     	;# 
  1795     0115                     	;# 
  1796     0116                     	;# 
  1797     0117                     	;# 
  1798     0118                     	;# 
  1799     0119                     	;# 
  1800     018C                     	;# 
  1801     018D                     	;# 
  1802     018E                     	;# 
  1803     0191                     	;# 
  1804     0191                     	;# 
  1805     0192                     	;# 
  1806     0193                     	;# 
  1807     0193                     	;# 
  1808     0194                     	;# 
  1809     0195                     	;# 
  1810     0196                     	;# 
  1811     0197                     	;# 
  1812     0199                     	;# 
  1813     019A                     	;# 
  1814     019B                     	;# 
  1815     019B                     	;# 
  1816     019C                     	;# 
  1817     019D                     	;# 
  1818     019E                     	;# 
  1819     019F                     	;# 
  1820     020C                     	;# 
  1821     020D                     	;# 
  1822     020E                     	;# 
  1823     028C                     	;# 
  1824     028D                     	;# 
  1825     028E                     	;# 
  1826     030C                     	;# 
  1827     030D                     	;# 
  1828     030E                     	;# 
  1829     038C                     	;# 
  1830     038D                     	;# 
  1831     038E                     	;# 
  1832     0391                     	;# 
  1833     0392                     	;# 
  1834     0393                     	;# 
  1835     0394                     	;# 
  1836     0395                     	;# 
  1837     0396                     	;# 
  1838     0397                     	;# 
  1839     0398                     	;# 
  1840     0399                     	;# 
  1841     0691                     	;# 
  1842     0692                     	;# 
  1843     0693                     	;# 
  1844     0694                     	;# 
  1845     0695                     	;# 
  1846     0D8E                     	;# 
  1847     0D8F                     	;# 
  1848     0D90                     	;# 
  1849     0D91                     	;# 
  1850     0D91                     	;# 
  1851     0D92                     	;# 
  1852     0D93                     	;# 
  1853     0D93                     	;# 
  1854     0D94                     	;# 
  1855     0D95                     	;# 
  1856     0D95                     	;# 
  1857     0D96                     	;# 
  1858     0D97                     	;# 
  1859     0D97                     	;# 
  1860     0D98                     	;# 
  1861     0D99                     	;# 
  1862     0D99                     	;# 
  1863     0D9A                     	;# 
  1864     0D9B                     	;# 
  1865     0D9C                     	;# 
  1866     0D9C                     	;# 
  1867     0D9D                     	;# 
  1868     0D9D                     	;# 
  1869     0D9E                     	;# 
  1870     0D9F                     	;# 
  1871     0DA0                     	;# 
  1872     0DA1                     	;# 
  1873     0DA1                     	;# 
  1874     0DA2                     	;# 
  1875     0DA3                     	;# 
  1876     0DA3                     	;# 
  1877     0DA4                     	;# 
  1878     0DA5                     	;# 
  1879     0DA5                     	;# 
  1880     0DA6                     	;# 
  1881     0DA7                     	;# 
  1882     0DA7                     	;# 
  1883     0DA8                     	;# 
  1884     0DA9                     	;# 
  1885     0DA9                     	;# 
  1886     0DAA                     	;# 
  1887     0DAB                     	;# 
  1888     0DAC                     	;# 
  1889     0DAC                     	;# 
  1890     0DAD                     	;# 
  1891     0DAD                     	;# 
  1892     0DAE                     	;# 
  1893     0DAF                     	;# 
  1894     0DB0                     	;# 
  1895     0DB1                     	;# 
  1896     0DB1                     	;# 
  1897     0DB2                     	;# 
  1898     0DB3                     	;# 
  1899     0DB3                     	;# 
  1900     0DB4                     	;# 
  1901     0DB5                     	;# 
  1902     0DB5                     	;# 
  1903     0DB6                     	;# 
  1904     0DB7                     	;# 
  1905     0DB7                     	;# 
  1906     0DB8                     	;# 
  1907     0DB9                     	;# 
  1908     0DB9                     	;# 
  1909     0DBA                     	;# 
  1910     0DBB                     	;# 
  1911     0DBC                     	;# 
  1912     0DBC                     	;# 
  1913     0DBD                     	;# 
  1914     0DBD                     	;# 
  1915     0DBE                     	;# 
  1916     0DBF                     	;# 
  1917     0DC0                     	;# 
  1918     0DC1                     	;# 
  1919     0DC1                     	;# 
  1920     0DC2                     	;# 
  1921     0DC3                     	;# 
  1922     0DC3                     	;# 
  1923     0DC4                     	;# 
  1924     0DC5                     	;# 
  1925     0DC5                     	;# 
  1926     0DC6                     	;# 
  1927     0DC7                     	;# 
  1928     0DC7                     	;# 
  1929     0DC8                     	;# 
  1930     0DC9                     	;# 
  1931     0DC9                     	;# 
  1932     0DCA                     	;# 
  1933     0DCB                     	;# 
  1934     0DCC                     	;# 
  1935     0DCC                     	;# 
  1936     0DCD                     	;# 
  1937     0DCD                     	;# 
  1938     0DCE                     	;# 
  1939     0DCF                     	;# 
  1940     0DD0                     	;# 
  1941     0E0F                     	;# 
  1942     0E10                     	;# 
  1943     0E11                     	;# 
  1944     0E12                     	;# 
  1945     0E13                     	;# 
  1946     0E14                     	;# 
  1947     0E15                     	;# 
  1948     0E16                     	;# 
  1949     0E17                     	;# 
  1950     0E90                     	;# 
  1951     0E91                     	;# 
  1952     0E92                     	;# 
  1953     0E94                     	;# 
  1954     0E95                     	;# 
  1955     0E9C                     	;# 
  1956     0E9D                     	;# 
  1957     0E9E                     	;# 
  1958     0E9F                     	;# 
  1959     0EA0                     	;# 
  1960     0EA1                     	;# 
  1961     0EA2                     	;# 
  1962     0EA3                     	;# 
  1963     0EA4                     	;# 
  1964     0EA5                     	;# 
  1965     0EA6                     	;# 
  1966     0EA7                     	;# 
  1967     0FE4                     	;# 
  1968     0FE5                     	;# 
  1969     0FE6                     	;# 
  1970     0FE7                     	;# 
  1971     0FE8                     	;# 
  1972     0FE8                     	;# 
  1973     0FE9                     	;# 
  1974     0FEA                     	;# 
  1975     0FEA                     	;# 
  1976     0FEB                     	;# 
  1977     0FED                     	;# 
  1978     0FEE                     	;# 
  1979     0FEE                     	;# 
  1980     0FEF                     	;# 
  1981     0000                     	;# 
  1982     0001                     	;# 
  1983     0002                     	;# 
  1984     0003                     	;# 
  1985     0004                     	;# 
  1986     0005                     	;# 
  1987     0006                     	;# 
  1988     0007                     	;# 
  1989     0008                     	;# 
  1990     0009                     	;# 
  1991     000A                     	;# 
  1992     000B                     	;# 
  1993     000C                     	;# 
  1994     000D                     	;# 
  1995     000E                     	;# 
  1996     0011                     	;# 
  1997     0012                     	;# 
  1998     0013                     	;# 
  1999     0015                     	;# 
  2000     0016                     	;# 
  2001     0016                     	;# 
  2002     0017                     	;# 
  2003     0018                     	;# 
  2004     0019                     	;# 
  2005     001A                     	;# 
  2006     001B                     	;# 
  2007     001C                     	;# 
  2008     008C                     	;# 
  2009     008D                     	;# 
  2010     008E                     	;# 
  2011     0091                     	;# 
  2012     0092                     	;# 
  2013     0093                     	;# 
  2014     0095                     	;# 
  2015     0096                     	;# 
  2016     0097                     	;# 
  2017     0098                     	;# 
  2018     0099                     	;# 
  2019     009A                     	;# 
  2020     009B                     	;# 
  2021     009B                     	;# 
  2022     009C                     	;# 
  2023     009D                     	;# 
  2024     009E                     	;# 
  2025     009F                     	;# 
  2026     010C                     	;# 
  2027     010D                     	;# 
  2028     010E                     	;# 
  2029     0111                     	;# 
  2030     0112                     	;# 
  2031     0113                     	;# 
  2032     0114                     	;# 
  2033     0115                     	;# 
  2034     0116                     	;# 
  2035     0117                     	;# 
  2036     0118                     	;# 
  2037     0119                     	;# 
  2038     018C                     	;# 
  2039     018D                     	;# 
  2040     018E                     	;# 
  2041     0191                     	;# 
  2042     0191                     	;# 
  2043     0192                     	;# 
  2044     0193                     	;# 
  2045     0193                     	;# 
  2046     0194                     	;# 
  2047     0195                     	;# 
  2048     0196                     	;# 
  2049     0197                     	;# 
  2050     0199                     	;# 
  2051     019A                     	;# 
  2052     019B                     	;# 
  2053     019B                     	;# 
  2054     019C                     	;# 
  2055     019D                     	;# 
  2056     019E                     	;# 
  2057     019F                     	;# 
  2058     020C                     	;# 
  2059     020D                     	;# 
  2060     020E                     	;# 
  2061     028C                     	;# 
  2062     028D                     	;# 
  2063     028E                     	;# 
  2064     030C                     	;# 
  2065     030D                     	;# 
  2066     030E                     	;# 
  2067     038C                     	;# 
  2068     038D                     	;# 
  2069     038E                     	;# 
  2070     0391                     	;# 
  2071     0392                     	;# 
  2072     0393                     	;# 
  2073     0394                     	;# 
  2074     0395                     	;# 
  2075     0396                     	;# 
  2076     0397                     	;# 
  2077     0398                     	;# 
  2078     0399                     	;# 
  2079     0691                     	;# 
  2080     0692                     	;# 
  2081     0693                     	;# 
  2082     0694                     	;# 
  2083     0695                     	;# 
  2084     0D8E                     	;# 
  2085     0D8F                     	;# 
  2086     0D90                     	;# 
  2087     0D91                     	;# 
  2088     0D91                     	;# 
  2089     0D92                     	;# 
  2090     0D93                     	;# 
  2091     0D93                     	;# 
  2092     0D94                     	;# 
  2093     0D95                     	;# 
  2094     0D95                     	;# 
  2095     0D96                     	;# 
  2096     0D97                     	;# 
  2097     0D97                     	;# 
  2098     0D98                     	;# 
  2099     0D99                     	;# 
  2100     0D99                     	;# 
  2101     0D9A                     	;# 
  2102     0D9B                     	;# 
  2103     0D9C                     	;# 
  2104     0D9C                     	;# 
  2105     0D9D                     	;# 
  2106     0D9D                     	;# 
  2107     0D9E                     	;# 
  2108     0D9F                     	;# 
  2109     0DA0                     	;# 
  2110     0DA1                     	;# 
  2111     0DA1                     	;# 
  2112     0DA2                     	;# 
  2113     0DA3                     	;# 
  2114     0DA3                     	;# 
  2115     0DA4                     	;# 
  2116     0DA5                     	;# 
  2117     0DA5                     	;# 
  2118     0DA6                     	;# 
  2119     0DA7                     	;# 
  2120     0DA7                     	;# 
  2121     0DA8                     	;# 
  2122     0DA9                     	;# 
  2123     0DA9                     	;# 
  2124     0DAA                     	;# 
  2125     0DAB                     	;# 
  2126     0DAC                     	;# 
  2127     0DAC                     	;# 
  2128     0DAD                     	;# 
  2129     0DAD                     	;# 
  2130     0DAE                     	;# 
  2131     0DAF                     	;# 
  2132     0DB0                     	;# 
  2133     0DB1                     	;# 
  2134     0DB1                     	;# 
  2135     0DB2                     	;# 
  2136     0DB3                     	;# 
  2137     0DB3                     	;# 
  2138     0DB4                     	;# 
  2139     0DB5                     	;# 
  2140     0DB5                     	;# 
  2141     0DB6                     	;# 
  2142     0DB7                     	;# 
  2143     0DB7                     	;# 
  2144     0DB8                     	;# 
  2145     0DB9                     	;# 
  2146     0DB9                     	;# 
  2147     0DBA                     	;# 
  2148     0DBB                     	;# 
  2149     0DBC                     	;# 
  2150     0DBC                     	;# 
  2151     0DBD                     	;# 
  2152     0DBD                     	;# 
  2153     0DBE                     	;# 
  2154     0DBF                     	;# 
  2155     0DC0                     	;# 
  2156     0DC1                     	;# 
  2157     0DC1                     	;# 
  2158     0DC2                     	;# 
  2159     0DC3                     	;# 
  2160     0DC3                     	;# 
  2161     0DC4                     	;# 
  2162     0DC5                     	;# 
  2163     0DC5                     	;# 
  2164     0DC6                     	;# 
  2165     0DC7                     	;# 
  2166     0DC7                     	;# 
  2167     0DC8                     	;# 
  2168     0DC9                     	;# 
  2169     0DC9                     	;# 
  2170     0DCA                     	;# 
  2171     0DCB                     	;# 
  2172     0DCC                     	;# 
  2173     0DCC                     	;# 
  2174     0DCD                     	;# 
  2175     0DCD                     	;# 
  2176     0DCE                     	;# 
  2177     0DCF                     	;# 
  2178     0DD0                     	;# 
  2179     0E0F                     	;# 
  2180     0E10                     	;# 
  2181     0E11                     	;# 
  2182     0E12                     	;# 
  2183     0E13                     	;# 
  2184     0E14                     	;# 
  2185     0E15                     	;# 
  2186     0E16                     	;# 
  2187     0E17                     	;# 
  2188     0E90                     	;# 
  2189     0E91                     	;# 
  2190     0E92                     	;# 
  2191     0E94                     	;# 
  2192     0E95                     	;# 
  2193     0E9C                     	;# 
  2194     0E9D                     	;# 
  2195     0E9E                     	;# 
  2196     0E9F                     	;# 
  2197     0EA0                     	;# 
  2198     0EA1                     	;# 
  2199     0EA2                     	;# 
  2200     0EA3                     	;# 
  2201     0EA4                     	;# 
  2202     0EA5                     	;# 
  2203     0EA6                     	;# 
  2204     0EA7                     	;# 
  2205     0FE4                     	;# 
  2206     0FE5                     	;# 
  2207     0FE6                     	;# 
  2208     0FE7                     	;# 
  2209     0FE8                     	;# 
  2210     0FE8                     	;# 
  2211     0FE9                     	;# 
  2212     0FEA                     	;# 
  2213     0FEA                     	;# 
  2214     0FEB                     	;# 
  2215     0FED                     	;# 
  2216     0FEE                     	;# 
  2217     0FEE                     	;# 
  2218     0FEF                     	;# 
  2219     0000                     	;# 
  2220     0001                     	;# 
  2221     0002                     	;# 
  2222     0003                     	;# 
  2223     0004                     	;# 
  2224     0005                     	;# 
  2225     0006                     	;# 
  2226     0007                     	;# 
  2227     0008                     	;# 
  2228     0009                     	;# 
  2229     000A                     	;# 
  2230     000B                     	;# 
  2231     000C                     	;# 
  2232     000D                     	;# 
  2233     000E                     	;# 
  2234     0011                     	;# 
  2235     0012                     	;# 
  2236     0013                     	;# 
  2237     0015                     	;# 
  2238     0016                     	;# 
  2239     0016                     	;# 
  2240     0017                     	;# 
  2241     0018                     	;# 
  2242     0019                     	;# 
  2243     001A                     	;# 
  2244     001B                     	;# 
  2245     001C                     	;# 
  2246     008C                     	;# 
  2247     008D                     	;# 
  2248     008E                     	;# 
  2249     0091                     	;# 
  2250     0092                     	;# 
  2251     0093                     	;# 
  2252     0095                     	;# 
  2253     0096                     	;# 
  2254     0097                     	;# 
  2255     0098                     	;# 
  2256     0099                     	;# 
  2257     009A                     	;# 
  2258     009B                     	;# 
  2259     009B                     	;# 
  2260     009C                     	;# 
  2261     009D                     	;# 
  2262     009E                     	;# 
  2263     009F                     	;# 
  2264     010C                     	;# 
  2265     010D                     	;# 
  2266     010E                     	;# 
  2267     0111                     	;# 
  2268     0112                     	;# 
  2269     0113                     	;# 
  2270     0114                     	;# 
  2271     0115                     	;# 
  2272     0116                     	;# 
  2273     0117                     	;# 
  2274     0118                     	;# 
  2275     0119                     	;# 
  2276     018C                     	;# 
  2277     018D                     	;# 
  2278     018E                     	;# 
  2279     0191                     	;# 
  2280     0191                     	;# 
  2281     0192                     	;# 
  2282     0193                     	;# 
  2283     0193                     	;# 
  2284     0194                     	;# 
  2285     0195                     	;# 
  2286     0196                     	;# 
  2287     0197                     	;# 
  2288     0199                     	;# 
  2289     019A                     	;# 
  2290     019B                     	;# 
  2291     019B                     	;# 
  2292     019C                     	;# 
  2293     019D                     	;# 
  2294     019E                     	;# 
  2295     019F                     	;# 
  2296     020C                     	;# 
  2297     020D                     	;# 
  2298     020E                     	;# 
  2299     028C                     	;# 
  2300     028D                     	;# 
  2301     028E                     	;# 
  2302     030C                     	;# 
  2303     030D                     	;# 
  2304     030E                     	;# 
  2305     038C                     	;# 
  2306     038D                     	;# 
  2307     038E                     	;# 
  2308     0391                     	;# 
  2309     0392                     	;# 
  2310     0393                     	;# 
  2311     0394                     	;# 
  2312     0395                     	;# 
  2313     0396                     	;# 
  2314     0397                     	;# 
  2315     0398                     	;# 
  2316     0399                     	;# 
  2317     0691                     	;# 
  2318     0692                     	;# 
  2319     0693                     	;# 
  2320     0694                     	;# 
  2321     0695                     	;# 
  2322     0D8E                     	;# 
  2323     0D8F                     	;# 
  2324     0D90                     	;# 
  2325     0D91                     	;# 
  2326     0D91                     	;# 
  2327     0D92                     	;# 
  2328     0D93                     	;# 
  2329     0D93                     	;# 
  2330     0D94                     	;# 
  2331     0D95                     	;# 
  2332     0D95                     	;# 
  2333     0D96                     	;# 
  2334     0D97                     	;# 
  2335     0D97                     	;# 
  2336     0D98                     	;# 
  2337     0D99                     	;# 
  2338     0D99                     	;# 
  2339     0D9A                     	;# 
  2340     0D9B                     	;# 
  2341     0D9C                     	;# 
  2342     0D9C                     	;# 
  2343     0D9D                     	;# 
  2344     0D9D                     	;# 
  2345     0D9E                     	;# 
  2346     0D9F                     	;# 
  2347     0DA0                     	;# 
  2348     0DA1                     	;# 
  2349     0DA1                     	;# 
  2350     0DA2                     	;# 
  2351     0DA3                     	;# 
  2352     0DA3                     	;# 
  2353     0DA4                     	;# 
  2354     0DA5                     	;# 
  2355     0DA5                     	;# 
  2356     0DA6                     	;# 
  2357     0DA7                     	;# 
  2358     0DA7                     	;# 
  2359     0DA8                     	;# 
  2360     0DA9                     	;# 
  2361     0DA9                     	;# 
  2362     0DAA                     	;# 
  2363     0DAB                     	;# 
  2364     0DAC                     	;# 
  2365     0DAC                     	;# 
  2366     0DAD                     	;# 
  2367     0DAD                     	;# 
  2368     0DAE                     	;# 
  2369     0DAF                     	;# 
  2370     0DB0                     	;# 
  2371     0DB1                     	;# 
  2372     0DB1                     	;# 
  2373     0DB2                     	;# 
  2374     0DB3                     	;# 
  2375     0DB3                     	;# 
  2376     0DB4                     	;# 
  2377     0DB5                     	;# 
  2378     0DB5                     	;# 
  2379     0DB6                     	;# 
  2380     0DB7                     	;# 
  2381     0DB7                     	;# 
  2382     0DB8                     	;# 
  2383     0DB9                     	;# 
  2384     0DB9                     	;# 
  2385     0DBA                     	;# 
  2386     0DBB                     	;# 
  2387     0DBC                     	;# 
  2388     0DBC                     	;# 
  2389     0DBD                     	;# 
  2390     0DBD                     	;# 
  2391     0DBE                     	;# 
  2392     0DBF                     	;# 
  2393     0DC0                     	;# 
  2394     0DC1                     	;# 
  2395     0DC1                     	;# 
  2396     0DC2                     	;# 
  2397     0DC3                     	;# 
  2398     0DC3                     	;# 
  2399     0DC4                     	;# 
  2400     0DC5                     	;# 
  2401     0DC5                     	;# 
  2402     0DC6                     	;# 
  2403     0DC7                     	;# 
  2404     0DC7                     	;# 
  2405     0DC8                     	;# 
  2406     0DC9                     	;# 
  2407     0DC9                     	;# 
  2408     0DCA                     	;# 
  2409     0DCB                     	;# 
  2410     0DCC                     	;# 
  2411     0DCC                     	;# 
  2412     0DCD                     	;# 
  2413     0DCD                     	;# 
  2414     0DCE                     	;# 
  2415     0DCF                     	;# 
  2416     0DD0                     	;# 
  2417     0E0F                     	;# 
  2418     0E10                     	;# 
  2419     0E11                     	;# 
  2420     0E12                     	;# 
  2421     0E13                     	;# 
  2422     0E14                     	;# 
  2423     0E15                     	;# 
  2424     0E16                     	;# 
  2425     0E17                     	;# 
  2426     0E90                     	;# 
  2427     0E91                     	;# 
  2428     0E92                     	;# 
  2429     0E94                     	;# 
  2430     0E95                     	;# 
  2431     0E9C                     	;# 
  2432     0E9D                     	;# 
  2433     0E9E                     	;# 
  2434     0E9F                     	;# 
  2435     0EA0                     	;# 
  2436     0EA1                     	;# 
  2437     0EA2                     	;# 
  2438     0EA3                     	;# 
  2439     0EA4                     	;# 
  2440     0EA5                     	;# 
  2441     0EA6                     	;# 
  2442     0EA7                     	;# 
  2443     0FE4                     	;# 
  2444     0FE5                     	;# 
  2445     0FE6                     	;# 
  2446     0FE7                     	;# 
  2447     0FE8                     	;# 
  2448     0FE8                     	;# 
  2449     0FE9                     	;# 
  2450     0FEA                     	;# 
  2451     0FEA                     	;# 
  2452     0FEB                     	;# 
  2453     0FED                     	;# 
  2454     0FEE                     	;# 
  2455     0FEE                     	;# 
  2456     0FEF                     	;# 
  2457                           
  2458                           	psect	idataBANK0
  2459     0270                     __pidataBANK0:
  2460                           
  2461                           ;initializer for _pwm0
  2462     0270  34E0               	retlw	224
  2463     0271  342E               	retlw	46
  2464     0272  34E0               	retlw	224
  2465     0273  342E               	retlw	46
  2466     0274  34E0               	retlw	224
  2467     0275  342E               	retlw	46
  2468     0276  34E0               	retlw	224
  2469     0277  342E               	retlw	46
  2470                           
  2471                           	psect	nvBANK0
  2472     0037                     __pnvBANK0:
  2473     0037                     _IOCCF4_InterruptHandler:
  2474     0037                     	ds	2
  2475     000D                     _PORTBbits	set	13
  2476     000C                     _PORTAbits	set	12
  2477     000E                     _PORTCbits	set	14
  2478     000B                     _INTCONbits	set	11
  2479     008D                     _TRISBbits	set	141
  2480     0097                     _WDTCON	set	151
  2481     0098                     _OSCTUNE	set	152
  2482     0099                     _OSCCON	set	153
  2483     0095                     _OPTION_REGbits	set	149
  2484     008E                     _TRISC	set	142
  2485     008D                     _TRISB	set	141
  2486     008C                     _TRISA	set	140
  2487     04D6                     _PLLR	set	1238
  2488     010D                     _LATBbits	set	269
  2489     010C                     _LATAbits	set	268
  2490     010E                     _LATCbits	set	270
  2491     0116                     _BORCON	set	278
  2492     010E                     _LATC	set	270
  2493     010D                     _LATB	set	269
  2494     010C                     _LATA	set	268
  2495     018C                     _ANSELA	set	396
  2496     018D                     _ANSELB	set	397
  2497     018E                     _ANSELC	set	398
  2498     020E                     _WPUC	set	526
  2499     020C                     _WPUA	set	524
  2500     020D                     _WPUB	set	525
  2501     028E                     _ODCONC	set	654
  2502     028D                     _ODCONB	set	653
  2503     028C                     _ODCONA	set	652
  2504     030E                     _SLRCONC	set	782
  2505     030D                     _SLRCONB	set	781
  2506     030C                     _SLRCONA	set	780
  2507     0397                     _IOCCPbits	set	919
  2508     0398                     _IOCCNbits	set	920
  2509     0399                     _IOCCFbits	set	921
  2510     038E                     _INLVLC	set	910
  2511     038D                     _INLVLB	set	909
  2512     038C                     _INLVLA	set	908
  2513     0DCD                     _PWM4INTFbits	set	3533
  2514     0DCF                     _PWM4LDCONbits	set	3535
  2515     0DCB                     _PWM4CONbits	set	3531
  2516     0DCB                     _PWM4CON	set	3531
  2517     0DC9                     _PWM4TMRL	set	3529
  2518     0DCA                     _PWM4TMRH	set	3530
  2519     0DC7                     _PWM4OFL	set	3527
  2520     0DC8                     _PWM4OFH	set	3528
  2521     0DC5                     _PWM4PRL	set	3525
  2522     0DC6                     _PWM4PRH	set	3526
  2523     0DC3                     _PWM4DCL	set	3523
  2524     0DC4                     _PWM4DCH	set	3524
  2525     0DC1                     _PWM4PHL	set	3521
  2526     0DC2                     _PWM4PHH	set	3522
  2527     0DD0                     _PWM4OFCON	set	3536
  2528     0DCF                     _PWM4LDCON	set	3535
  2529     0DCE                     _PWM4CLKCON	set	3534
  2530     0DCD                     _PWM4INTF	set	3533
  2531     0DCC                     _PWM4INTE	set	3532
  2532     0DBD                     _PWM3INTFbits	set	3517
  2533     0DBF                     _PWM3LDCONbits	set	3519
  2534     0DBB                     _PWM3CONbits	set	3515
  2535     0DBB                     _PWM3CON	set	3515
  2536     0DB9                     _PWM3TMRL	set	3513
  2537     0DBA                     _PWM3TMRH	set	3514
  2538     0DB7                     _PWM3OFL	set	3511
  2539     0DB8                     _PWM3OFH	set	3512
  2540     0DB5                     _PWM3PRL	set	3509
  2541     0DB6                     _PWM3PRH	set	3510
  2542     0DB3                     _PWM3DCL	set	3507
  2543     0DB4                     _PWM3DCH	set	3508
  2544     0DB1                     _PWM3PHL	set	3505
  2545     0DB2                     _PWM3PHH	set	3506
  2546     0DC0                     _PWM3OFCON	set	3520
  2547     0DBF                     _PWM3LDCON	set	3519
  2548     0DBE                     _PWM3CLKCON	set	3518
  2549     0DBD                     _PWM3INTF	set	3517
  2550     0DBC                     _PWM3INTE	set	3516
  2551     0DAD                     _PWM2INTFbits	set	3501
  2552     0DAF                     _PWM2LDCONbits	set	3503
  2553     0DAB                     _PWM2CONbits	set	3499
  2554     0DAB                     _PWM2CON	set	3499
  2555     0DA9                     _PWM2TMRL	set	3497
  2556     0DAA                     _PWM2TMRH	set	3498
  2557     0DA7                     _PWM2OFL	set	3495
  2558     0DA8                     _PWM2OFH	set	3496
  2559     0DA5                     _PWM2PRL	set	3493
  2560     0DA6                     _PWM2PRH	set	3494
  2561     0DA3                     _PWM2DCL	set	3491
  2562     0DA4                     _PWM2DCH	set	3492
  2563     0DA1                     _PWM2PHL	set	3489
  2564     0DA2                     _PWM2PHH	set	3490
  2565     0DB0                     _PWM2OFCON	set	3504
  2566     0DAF                     _PWM2LDCON	set	3503
  2567     0DAE                     _PWM2CLKCON	set	3502
  2568     0DAD                     _PWM2INTF	set	3501
  2569     0DAC                     _PWM2INTE	set	3500
  2570     0D9D                     _PWM1INTFbits	set	3485
  2571     0D9F                     _PWM1LDCONbits	set	3487
  2572     0D9B                     _PWM1CONbits	set	3483
  2573     0D9B                     _PWM1CON	set	3483
  2574     0D99                     _PWM1TMRL	set	3481
  2575     0D9A                     _PWM1TMRH	set	3482
  2576     0D97                     _PWM1OFL	set	3479
  2577     0D98                     _PWM1OFH	set	3480
  2578     0D95                     _PWM1PRL	set	3477
  2579     0D96                     _PWM1PRH	set	3478
  2580     0D93                     _PWM1DCL	set	3475
  2581     0D94                     _PWM1DCH	set	3476
  2582     0D91                     _PWM1PHL	set	3473
  2583     0D92                     _PWM1PHH	set	3474
  2584     0DA0                     _PWM1OFCON	set	3488
  2585     0D9F                     _PWM1LDCON	set	3487
  2586     0D9E                     _PWM1CLKCON	set	3486
  2587     0D9D                     _PWM1INTF	set	3485
  2588     0D9C                     _PWM1INTE	set	3484
  2589     0E90                     _RA0PPS	set	3728
  2590     0E9C                     _RB4PPS	set	3740
  2591     0E9D                     _RB5PPS	set	3741
  2592     0EA0                     _RC0PPS	set	3744
  2593                           
  2594                           	psect	cinit
  2595     0015                     start_initialization:	
  2596                           ; #config settings
  2597                           
  2598     0015                     __initialization:
  2599                           
  2600                           ; Initialize objects allocated to BANK0
  2601     0015  3070               	movlw	low __pidataBANK0
  2602     0016  0084               	movwf	4
  2603     0017  3082               	movlw	(high __pidataBANK0)| (0+128)
  2604     0018  0085               	movwf	5
  2605     0019  302B               	movlw	low __pdataBANK0
  2606     001A  0086               	movwf	6
  2607     001B  3000               	movlw	high __pdataBANK0
  2608     001C  0087               	movwf	7
  2609     001D  3008               	movlw	8
  2610     001E  3182  2278  3180   	fcall	init_ram
  2611                           
  2612                           ; Clear objects allocated to BANK0
  2613     0021  01A0               	clrf	__pbssBANK0& (0+127)
  2614     0022  01A1               	clrf	(__pbssBANK0+1)& (0+127)
  2615     0023  01A2               	clrf	(__pbssBANK0+2)& (0+127)
  2616     0024  01A3               	clrf	(__pbssBANK0+3)& (0+127)
  2617     0025  01A4               	clrf	(__pbssBANK0+4)& (0+127)
  2618     0026  01A5               	clrf	(__pbssBANK0+5)& (0+127)
  2619     0027  01A6               	clrf	(__pbssBANK0+6)& (0+127)
  2620     0028  01A7               	clrf	(__pbssBANK0+7)& (0+127)
  2621     0029  01A8               	clrf	(__pbssBANK0+8)& (0+127)
  2622     002A  01A9               	clrf	(__pbssBANK0+9)& (0+127)
  2623     002B  01AA               	clrf	(__pbssBANK0+10)& (0+127)
  2624     002C                     end_of_initialization:	
  2625                           ;End of C runtime variable initialization code
  2626                           
  2627     002C                     __end_of__initialization:
  2628     002C  107E               	bcf	int$flags,0	;clear compiler interrupt flag (level 1)
  2629     002D  0020               	movlb	0
  2630     002E  3180  28E4         	ljmp	_main	;jump to C main() function
  2631                           
  2632                           	psect	bssBANK0
  2633     0020                     __pbssBANK0:
  2634     0020                     _data:
  2635     0020                     	ds	8
  2636     0028                     _cnt_push:
  2637     0028                     	ds	1
  2638     0029                     _mode:
  2639     0029                     	ds	1
  2640     002A                     _i:
  2641     002A                     	ds	1
  2642                           
  2643                           	psect	dataBANK0
  2644     002B                     __pdataBANK0:
  2645     002B                     _pwm0:
  2646     002B                     	ds	8
  2647                           
  2648                           	psect	inittext
  2649     0278                     init_ram:
  2650     0278  00FE               	movwf	btemp
  2651     0279                     initloop:
  2652     0279  0012               	moviw fsr0++
  2653     027A  001E               	movwi fsr1++
  2654     027B  0BFE               	decfsz	btemp,f
  2655     027C  2A79               	goto	initloop
  2656     027D  3400               	retlw	0
  2657                           
  2658                           	psect	cstackCOMMON
  2659     0070                     __pcstackCOMMON:
  2660     0070                     ?_IOCCF4_DefaultInterruptHandler:
  2661     0070                     ??_IOCCF4_DefaultInterruptHandler:	
  2662                           ; 1 bytes @ 0x0
  2663                           
  2664     0070                     ?_IOCCF4_ISR:	
  2665                           ; 1 bytes @ 0x0
  2666                           
  2667     0070                     ?_OSCILLATOR_Initialize:	
  2668                           ; 1 bytes @ 0x0
  2669                           
  2670     0070                     ?_WDT_Initialize:	
  2671                           ; 1 bytes @ 0x0
  2672                           
  2673     0070                     ?_PWM1_Initialize:	
  2674                           ; 1 bytes @ 0x0
  2675                           
  2676     0070                     ?_PWM2_Initialize:	
  2677                           ; 1 bytes @ 0x0
  2678                           
  2679     0070                     ?_PWM4_Initialize:	
  2680                           ; 1 bytes @ 0x0
  2681                           
  2682     0070                     ?_PWM3_Initialize:	
  2683                           ; 1 bytes @ 0x0
  2684                           
  2685     0070                     ?_PIN_MANAGER_Initialize:	
  2686                           ; 1 bytes @ 0x0
  2687                           
  2688     0070                     ?_PIN_MANAGER_IOC:	
  2689                           ; 1 bytes @ 0x0
  2690                           
  2691     0070                     ?_SYSTEM_Initialize:	
  2692                           ; 1 bytes @ 0x0
  2693                           
  2694     0070                     ?_PWM1_Start:	
  2695                           ; 1 bytes @ 0x0
  2696                           
  2697     0070                     ??_PWM1_Start:	
  2698                           ; 1 bytes @ 0x0
  2699                           
  2700     0070                     ?_PWM1_LoadBufferSet:	
  2701                           ; 1 bytes @ 0x0
  2702                           
  2703     0070                     ??_PWM1_LoadBufferSet:	
  2704                           ; 1 bytes @ 0x0
  2705                           
  2706     0070                     ?_PWM1_DutyCycleSet:	
  2707                           ; 1 bytes @ 0x0
  2708                           
  2709     0070                     ?_PWM2_Start:	
  2710                           ; 1 bytes @ 0x0
  2711                           
  2712     0070                     ??_PWM2_Start:	
  2713                           ; 1 bytes @ 0x0
  2714                           
  2715     0070                     ?_PWM2_LoadBufferSet:	
  2716                           ; 1 bytes @ 0x0
  2717                           
  2718     0070                     ??_PWM2_LoadBufferSet:	
  2719                           ; 1 bytes @ 0x0
  2720                           
  2721     0070                     ?_PWM2_DutyCycleSet:	
  2722                           ; 1 bytes @ 0x0
  2723                           
  2724     0070                     ?_PWM3_Start:	
  2725                           ; 1 bytes @ 0x0
  2726                           
  2727     0070                     ??_PWM3_Start:	
  2728                           ; 1 bytes @ 0x0
  2729                           
  2730     0070                     ?_PWM3_LoadBufferSet:	
  2731                           ; 1 bytes @ 0x0
  2732                           
  2733     0070                     ??_PWM3_LoadBufferSet:	
  2734                           ; 1 bytes @ 0x0
  2735                           
  2736     0070                     ?_PWM3_DutyCycleSet:	
  2737                           ; 1 bytes @ 0x0
  2738                           
  2739     0070                     ?_PWM4_Start:	
  2740                           ; 1 bytes @ 0x0
  2741                           
  2742     0070                     ??_PWM4_Start:	
  2743                           ; 1 bytes @ 0x0
  2744                           
  2745     0070                     ?_PWM4_LoadBufferSet:	
  2746                           ; 1 bytes @ 0x0
  2747                           
  2748     0070                     ??_PWM4_LoadBufferSet:	
  2749                           ; 1 bytes @ 0x0
  2750                           
  2751     0070                     ?_PWM4_DutyCycleSet:	
  2752                           ; 1 bytes @ 0x0
  2753                           
  2754     0070                     ?_INTERRUPT_InterruptManager:	
  2755                           ; 1 bytes @ 0x0
  2756                           
  2757     0070                     ?_set_pwm:	
  2758                           ; 1 bytes @ 0x0
  2759                           
  2760     0070                     ?_int_strb:	
  2761                           ; 1 bytes @ 0x0
  2762                           
  2763     0070                     ?_main:	
  2764                           ; 1 bytes @ 0x0
  2765                           
  2766     0070                     PWM1_DutyCycleSet@dutyCycleCount:	
  2767                           ; 1 bytes @ 0x0
  2768                           
  2769     0070                     PWM2_DutyCycleSet@dutyCycleCount:	
  2770                           ; 2 bytes @ 0x0
  2771                           
  2772     0070                     PWM3_DutyCycleSet@dutyCycleCount:	
  2773                           ; 2 bytes @ 0x0
  2774                           
  2775     0070                     PWM4_DutyCycleSet@dutyCycleCount:	
  2776                           ; 2 bytes @ 0x0
  2777                           
  2778                           
  2779                           ; 2 bytes @ 0x0
  2780     0070                     	ds	2
  2781     0072                     ??_PWM1_DutyCycleSet:
  2782     0072                     ??_PWM2_DutyCycleSet:	
  2783                           ; 1 bytes @ 0x2
  2784                           
  2785     0072                     ??_PWM3_DutyCycleSet:	
  2786                           ; 1 bytes @ 0x2
  2787                           
  2788     0072                     ??_PWM4_DutyCycleSet:	
  2789                           ; 1 bytes @ 0x2
  2790                           
  2791     0072                     ??_set_pwm:	
  2792                           ; 1 bytes @ 0x2
  2793                           
  2794                           
  2795                           ; 1 bytes @ 0x2
  2796     0072                     	ds	2
  2797     0074                     set_pwm@i:
  2798                           
  2799                           ; 1 bytes @ 0x4
  2800     0074                     	ds	1
  2801     0075                     set_pwm@d0:
  2802                           
  2803                           ; 2 bytes @ 0x5
  2804     0075                     	ds	2
  2805     0077                     set_pwm@d:
  2806                           
  2807                           ; 2 bytes @ 0x7
  2808     0077                     	ds	2
  2809     0079                     ??_int_strb:
  2810                           
  2811                           ; 1 bytes @ 0x9
  2812     0079                     	ds	1
  2813     007A                     int_strb@d:
  2814                           
  2815                           ; 1 bytes @ 0xA
  2816     007A                     	ds	1
  2817     007B                     int_strb@b:
  2818                           
  2819                           ; 1 bytes @ 0xB
  2820     007B                     	ds	1
  2821     007C                     int_strb@idx:
  2822                           
  2823                           ; 1 bytes @ 0xC
  2824     007C                     	ds	1
  2825     007D                     ??_IOCCF4_ISR:
  2826     007D                     ??_PIN_MANAGER_IOC:	
  2827                           ; 1 bytes @ 0xD
  2828                           
  2829     007D                     ??_INTERRUPT_InterruptManager:	
  2830                           ; 1 bytes @ 0xD
  2831                           
  2832                           
  2833                           	psect	cstackBANK0
  2834     0033                     __pcstackBANK0:	
  2835                           ; 1 bytes @ 0xD
  2836                           
  2837     0033                     ?_IOCCF4_SetInterruptHandler:
  2838     0033                     ??_OSCILLATOR_Initialize:	
  2839                           ; 1 bytes @ 0x0
  2840                           
  2841     0033                     ??_WDT_Initialize:	
  2842                           ; 1 bytes @ 0x0
  2843                           
  2844     0033                     ??_PWM1_Initialize:	
  2845                           ; 1 bytes @ 0x0
  2846                           
  2847     0033                     ??_PWM2_Initialize:	
  2848                           ; 1 bytes @ 0x0
  2849                           
  2850     0033                     ??_PWM4_Initialize:	
  2851                           ; 1 bytes @ 0x0
  2852                           
  2853     0033                     ??_PWM3_Initialize:	
  2854                           ; 1 bytes @ 0x0
  2855                           
  2856     0033                     IOCCF4_SetInterruptHandler@InterruptHandler:	
  2857                           ; 1 bytes @ 0x0
  2858                           
  2859                           
  2860                           ; 2 bytes @ 0x0
  2861     0033                     	ds	2
  2862     0035                     ??_IOCCF4_SetInterruptHandler:
  2863     0035                     ??_PIN_MANAGER_Initialize:	
  2864                           ; 1 bytes @ 0x2
  2865                           
  2866     0035                     ??_SYSTEM_Initialize:	
  2867                           ; 1 bytes @ 0x2
  2868                           
  2869     0035                     ??_main:	
  2870                           ; 1 bytes @ 0x2
  2871                           
  2872                           
  2873                           ; 1 bytes @ 0x2
  2874     0035                     	ds	2
  2875                           
  2876                           	psect	maintext
  2877     00E4                     __pmaintext:	
  2878 ;;
  2879 ;;Main: autosize = 0, tempsize = 2, incstack = 0, save=0
  2880 ;;
  2881 ;; *************** function _main *****************
  2882 ;; Defined at:
  2883 ;;		line 90 in file "main.c"
  2884 ;; Parameters:    Size  Location     Type
  2885 ;;		None
  2886 ;; Auto vars:     Size  Location     Type
  2887 ;;		None
  2888 ;; Return value:  Size  Location     Type
  2889 ;;                  1    wreg      void 
  2890 ;; Registers used:
  2891 ;;		wreg, fsr1l, fsr1h, status,2, status,0, pclath, cstack
  2892 ;; Tracked objects:
  2893 ;;		On entry : B1F/0
  2894 ;;		On exit  : 0/0
  2895 ;;		Unchanged: 0/0
  2896 ;; Data sizes:     COMMON   BANK0   BANK1   BANK2   BANK3   BANK4   BANK5   BANK6   BANK7   BANK8   BANK9  BANK10  BANK1
      +1  BANK12
  2897 ;;      Params:         0       0       0       0       0       0       0       0       0       0       0       0       
      +0       0
  2898 ;;      Locals:         0       0       0       0       0       0       0       0       0       0       0       0       
      +0       0
  2899 ;;      Temps:          0       2       0       0       0       0       0       0       0       0       0       0       
      +0       0
  2900 ;;      Totals:         0       2       0       0       0       0       0       0       0       0       0       0       
      +0       0
  2901 ;;Total ram usage:        2 bytes
  2902 ;; Hardware stack levels required when called: 9
  2903 ;; This function calls:
  2904 ;;		_IOCCF4_SetInterruptHandler
  2905 ;;		_SYSTEM_Initialize
  2906 ;; This function is called by:
  2907 ;;		Startup code after reset
  2908 ;; This function uses a non-reentrant model
  2909 ;;
  2910                           
  2911     00E4                     _main:	
  2912                           ;psect for function _main
  2913                           
  2914     00E4                     l2093:	
  2915                           ;incstack = 0
  2916                           ; Regs used in _main: [wreg+fsr1l+fsr1h+status,2+status,0+pclath+cstack]
  2917                           
  2918                           
  2919                           ;main.c: 92:     SYSTEM_Initialize();
  2920     00E4  3182  2236  3180   	fcall	_SYSTEM_Initialize
  2921                           
  2922                           ;main.c: 93:     IOCCF4_SetInterruptHandler(int_strb);
  2923     00E7  309F               	movlw	low _int_strb
  2924     00E8  0020               	movlb	0	; select bank0
  2925     00E9  00B3               	movwf	IOCCF4_SetInterruptHandler@InterruptHandler
  2926     00EA  3001               	movlw	high _int_strb
  2927     00EB  00B4               	movwf	IOCCF4_SetInterruptHandler@InterruptHandler+1
  2928     00EC  3182  227E  3180   	fcall	_IOCCF4_SetInterruptHandler
  2929     00EF                     l2095:
  2930                           
  2931                           ;main.c: 94:     for (i=0; i<4; i++) {
  2932     00EF  0020               	movlb	0	; select bank0
  2933     00F0  01AA               	clrf	_i
  2934     00F1                     l2101:
  2935                           
  2936                           ;main.c: 95:         data.pwm[i] = pwm0[i] = 12000;
  2937     00F1  352A               	lslf	_i,w
  2938     00F2  3E2B               	addlw	(low (_pwm0| 0))& (0+255)
  2939     00F3  0086               	movwf	6
  2940     00F4  0187               	clrf	7
  2941     00F5  30E0               	movlw	224
  2942     00F6  3FC0               	movwi [0]fsr1
  2943     00F7  302E               	movlw	46
  2944     00F8  3FC1               	movwi [1]fsr1
  2945     00F9  352A               	lslf	_i,w
  2946     00FA  3E20               	addlw	(low (_data| 0))& (0+255)
  2947     00FB  0086               	movwf	6
  2948     00FC  0187               	clrf	7
  2949     00FD  30E0               	movlw	224
  2950     00FE  3FC0               	movwi [0]fsr1
  2951     00FF  302E               	movlw	46
  2952     0100  3FC1               	movwi [1]fsr1
  2953     0101                     l2103:
  2954                           
  2955                           ;main.c: 96:     }
  2956     0101  3001               	movlw	1
  2957     0102  00B5               	movwf	??_main
  2958     0103  0835               	movf	??_main,w
  2959     0104  07AA               	addwf	_i,f
  2960     0105                     l2105:
  2961     0105  3004               	movlw	4
  2962     0106  022A               	subwf	_i,w
  2963     0107  1C03               	skipc
  2964     0108  290A               	goto	u501
  2965     0109  290B               	goto	u500
  2966     010A                     u501:
  2967     010A  28F1               	goto	l2101
  2968     010B                     u500:
  2969     010B                     l534:	
  2970                           ;main.c: 97:     do { LATCbits.LATC5 = 1; } while(0);
  2971                           
  2972     010B  0022               	movlb	2	; select bank2
  2973     010C  168E               	bsf	14,5	;volatile
  2974     010D                     l536:	
  2975                           ;main.c: 98:     do { LATCbits.LATC2 = 1; } while(0);
  2976                           
  2977     010D  150E               	bsf	14,2	;volatile
  2978     010E                     l538:	
  2979                           ;main.c: 99:     do { LATAbits.LATA4 = 1; } while(0);
  2980                           
  2981     010E  160C               	bsf	12,4	;volatile
  2982     010F                     l539:
  2983                           
  2984                           ;main.c: 100:     (INTCONbits.GIE = 1);
  2985     010F  178B               	bsf	11,7	;volatile
  2986                           
  2987                           ;main.c: 101:     (INTCONbits.PEIE = 1);
  2988     0110  170B               	bsf	11,6	;volatile
  2989     0111                     l540:	
  2990                           ;main.c: 103:     do { LATCbits.LATC7 = 1; } while(0);
  2991                           
  2992     0111  178E               	bsf	14,7	;volatile
  2993     0112                     l2107:
  2994                           
  2995                           ;main.c: 104:     _delay((unsigned long)((100)*(32000000/4000.0)));
  2996     0112  3005               	movlw	5
  2997     0113  0020               	movlb	0	; select bank0
  2998     0114  00B6               	movwf	??_main+1
  2999     0115  300F               	movlw	15
  3000     0116  00B5               	movwf	??_main
  3001     0117  30F1               	movlw	241
  3002     0118                     u577:
  3003     0118  0B89               	decfsz	9,f
  3004     0119  2918               	goto	u577
  3005     011A  0BB5               	decfsz	??_main,f
  3006     011B  2918               	goto	u577
  3007     011C  0BB6               	decfsz	??_main+1,f
  3008     011D  2918               	goto	u577
  3009     011E                     l2109:
  3010     011E  0022               	movlb	2	; select bank2
  3011     011F  138E               	bcf	14,7	;volatile
  3012     0120                     l544:	
  3013                           ;main.c: 108:     while (1) {
  3014                           
  3015     0120  0064               	clrwdt	;# 
  3016     0121                     l2111:
  3017                           
  3018                           ;main.c: 110:         if (mode == 0) {
  3019     0121  0020               	movlb	0	; select bank0
  3020     0122  0829               	movf	_mode,w
  3021     0123  1D03               	btfss	3,2
  3022     0124  2926               	goto	u511
  3023     0125  2927               	goto	u510
  3024     0126                     u511:
  3025     0126  293B               	goto	l2125
  3026     0127                     u510:
  3027     0127                     l2113:
  3028                           
  3029                           ;main.c: 111:             if (PORTAbits.RA5) {
  3030     0127  1E8C               	btfss	12,5	;volatile
  3031     0128  292A               	goto	u521
  3032     0129  292B               	goto	u520
  3033     012A                     u521:
  3034     012A  2939               	goto	l2123
  3035     012B                     u520:
  3036     012B                     l2115:
  3037                           
  3038                           ;main.c: 112:                 cnt_push ++;
  3039     012B  3001               	movlw	1
  3040     012C  00B5               	movwf	??_main
  3041     012D  0835               	movf	??_main,w
  3042     012E  07A8               	addwf	_cnt_push,f
  3043     012F                     l2117:
  3044                           
  3045                           ;main.c: 113:                 if (cnt_push >= 10) {
  3046     012F  300A               	movlw	10
  3047     0130  0228               	subwf	_cnt_push,w
  3048     0131  1C03               	skipc
  3049     0132  2934               	goto	u531
  3050     0133  2935               	goto	u530
  3051     0134                     u531:
  3052     0134  2956               	goto	l2137
  3053     0135                     u530:
  3054     0135                     l2119:
  3055                           
  3056                           ;main.c: 114:                     cnt_push = 0;
  3057     0135  01A8               	clrf	_cnt_push
  3058     0136                     l2121:
  3059                           
  3060                           ;main.c: 115:                     mode = 1;
  3061     0136  01A9               	clrf	_mode
  3062     0137  0AA9               	incf	_mode,f
  3063     0138  2956               	goto	l2137
  3064     0139                     l2123:
  3065                           
  3066                           ;main.c: 119:                 cnt_push = 0;
  3067     0139  01A8               	clrf	_cnt_push
  3068     013A  2956               	goto	l2137
  3069     013B                     l2125:
  3070     013B  0329               	decf	_mode,w
  3071     013C  1D03               	btfss	3,2
  3072     013D  293F               	goto	u541
  3073     013E  2940               	goto	u540
  3074     013F                     u541:
  3075     013F  2952               	goto	l555
  3076     0140                     u540:
  3077     0140                     l2127:
  3078                           
  3079                           ;main.c: 123:             if (PORTAbits.RA5) {
  3080     0140  1E8C               	btfss	12,5	;volatile
  3081     0141  2943               	goto	u551
  3082     0142  2944               	goto	u550
  3083     0143                     u551:
  3084     0143  2945               	goto	l2131
  3085     0144                     u550:
  3086     0144  2939               	goto	l2123
  3087     0145                     l2131:
  3088                           
  3089                           ;main.c: 127:                 cnt_push ++;
  3090     0145  3001               	movlw	1
  3091     0146  00B5               	movwf	??_main
  3092     0147  0835               	movf	??_main,w
  3093     0148  07A8               	addwf	_cnt_push,f
  3094     0149                     l2133:
  3095                           
  3096                           ;main.c: 128:                 if (cnt_push >= 50) {
  3097     0149  3032               	movlw	50
  3098     014A  0228               	subwf	_cnt_push,w
  3099     014B  1C03               	skipc
  3100     014C  294E               	goto	u561
  3101     014D  294F               	goto	u560
  3102     014E                     u561:
  3103     014E  2956               	goto	l2137
  3104     014F                     u560:
  3105     014F                     l2135:
  3106                           
  3107                           ;main.c: 129:                     mode = 2;
  3108     014F  3002               	movlw	2
  3109     0150  00A9               	movwf	_mode
  3110     0151  2956               	goto	l2137
  3111     0152                     l555:	
  3112                           ;main.c: 134:             do { LATCbits.LATC2 = 0; } while(0);
  3113                           
  3114     0152  0022               	movlb	2	; select bank2
  3115     0153  110E               	bcf	14,2	;volatile
  3116     0154                     l557:	
  3117                           ;main.c: 135:             do { LATCbits.LATC5 = 0; } while(0);
  3118                           
  3119     0154  128E               	bcf	14,5	;volatile
  3120     0155                     l559:	
  3121                           ;main.c: 136:             do { LATAbits.LATA4 = 0; } while(0);
  3122                           
  3123     0155  120C               	bcf	12,4	;volatile
  3124     0156                     l2137:
  3125                           
  3126                           ;main.c: 138:         _delay((unsigned long)((10)*(32000000/4000.0)));
  3127     0156  3068               	movlw	104
  3128     0157  0020               	movlb	0	; select bank0
  3129     0158  00B5               	movwf	??_main
  3130     0159  30E4               	movlw	228
  3131     015A                     u587:
  3132     015A  0B89               	decfsz	9,f
  3133     015B  295A               	goto	u587
  3134     015C  0BB5               	decfsz	??_main,f
  3135     015D  295A               	goto	u587
  3136     015E  0000               	nop
  3137     015F  2920               	goto	l544
  3138     0160  3180  2813         	ljmp	start
  3139     0162                     __end_of_main:
  3140                           
  3141                           	psect	text1
  3142     0236                     __ptext1:	
  3143 ;; *************** function _SYSTEM_Initialize *****************
  3144 ;; Defined at:
  3145 ;;		line 50 in file "mcc_generated_files/mcc.c"
  3146 ;; Parameters:    Size  Location     Type
  3147 ;;		None
  3148 ;; Auto vars:     Size  Location     Type
  3149 ;;		None
  3150 ;; Return value:  Size  Location     Type
  3151 ;;                  1    wreg      void 
  3152 ;; Registers used:
  3153 ;;		wreg, status,2, status,0, pclath, cstack
  3154 ;; Tracked objects:
  3155 ;;		On entry : 0/0
  3156 ;;		On exit  : 0/0
  3157 ;;		Unchanged: 0/0
  3158 ;; Data sizes:     COMMON   BANK0   BANK1   BANK2   BANK3   BANK4   BANK5   BANK6   BANK7   BANK8   BANK9  BANK10  BANK1
      +1  BANK12
  3159 ;;      Params:         0       0       0       0       0       0       0       0       0       0       0       0       
      +0       0
  3160 ;;      Locals:         0       0       0       0       0       0       0       0       0       0       0       0       
      +0       0
  3161 ;;      Temps:          0       0       0       0       0       0       0       0       0       0       0       0       
      +0       0
  3162 ;;      Totals:         0       0       0       0       0       0       0       0       0       0       0       0       
      +0       0
  3163 ;;Total ram usage:        0 bytes
  3164 ;; Hardware stack levels used: 1
  3165 ;; Hardware stack levels required when called: 8
  3166 ;; This function calls:
  3167 ;;		_OSCILLATOR_Initialize
  3168 ;;		_PIN_MANAGER_Initialize
  3169 ;;		_PWM1_Initialize
  3170 ;;		_PWM2_Initialize
  3171 ;;		_PWM3_Initialize
  3172 ;;		_PWM4_Initialize
  3173 ;;		_WDT_Initialize
  3174 ;; This function is called by:
  3175 ;;		_main
  3176 ;; This function uses a non-reentrant model
  3177 ;;
  3178                           
  3179     0236                     _SYSTEM_Initialize:	
  3180                           ;psect for function _SYSTEM_Initialize
  3181                           
  3182     0236                     l2085:	
  3183                           ;incstack = 0
  3184                           ; Regs used in _SYSTEM_Initialize: [wreg+status,2+status,0+pclath+cstack]
  3185                           
  3186                           
  3187                           ;mcc_generated_files/mcc.c: 53:     PIN_MANAGER_Initialize();
  3188     0236  3181  2162  3182   	fcall	_PIN_MANAGER_Initialize
  3189                           
  3190                           ;mcc_generated_files/mcc.c: 54:     OSCILLATOR_Initialize();
  3191     0239  3182  225B  3182   	fcall	_OSCILLATOR_Initialize
  3192                           
  3193                           ;mcc_generated_files/mcc.c: 55:     WDT_Initialize();
  3194     023C  3182  229C  3182   	fcall	_WDT_Initialize
  3195                           
  3196                           ;mcc_generated_files/mcc.c: 56:     PWM1_Initialize();
  3197     023F  3182  221D  3182   	fcall	_PWM1_Initialize
  3198                           
  3199                           ;mcc_generated_files/mcc.c: 57:     PWM2_Initialize();
  3200     0242  3182  2204  3182   	fcall	_PWM2_Initialize
  3201                           
  3202                           ;mcc_generated_files/mcc.c: 58:     PWM4_Initialize();
  3203     0245  3181  21D2  3182   	fcall	_PWM4_Initialize
  3204                           
  3205                           ;mcc_generated_files/mcc.c: 59:     PWM3_Initialize();
  3206     0248  3181  21EB  3182   	fcall	_PWM3_Initialize
  3207     024B                     l112:
  3208     024B  0008               	return
  3209     024C                     __end_of_SYSTEM_Initialize:
  3210                           
  3211                           	psect	text2
  3212     029C                     __ptext2:	
  3213 ;; *************** function _WDT_Initialize *****************
  3214 ;; Defined at:
  3215 ;;		line 76 in file "mcc_generated_files/mcc.c"
  3216 ;; Parameters:    Size  Location     Type
  3217 ;;		None
  3218 ;; Auto vars:     Size  Location     Type
  3219 ;;		None
  3220 ;; Return value:  Size  Location     Type
  3221 ;;                  1    wreg      void 
  3222 ;; Registers used:
  3223 ;;		wreg
  3224 ;; Tracked objects:
  3225 ;;		On entry : 0/0
  3226 ;;		On exit  : 0/0
  3227 ;;		Unchanged: 0/0
  3228 ;; Data sizes:     COMMON   BANK0   BANK1   BANK2   BANK3   BANK4   BANK5   BANK6   BANK7   BANK8   BANK9  BANK10  BANK1
      +1  BANK12
  3229 ;;      Params:         0       0       0       0       0       0       0       0       0       0       0       0       
      +0       0
  3230 ;;      Locals:         0       0       0       0       0       0       0       0       0       0       0       0       
      +0       0
  3231 ;;      Temps:          0       0       0       0       0       0       0       0       0       0       0       0       
      +0       0
  3232 ;;      Totals:         0       0       0       0       0       0       0       0       0       0       0       0       
      +0       0
  3233 ;;Total ram usage:        0 bytes
  3234 ;; Hardware stack levels used: 1
  3235 ;; Hardware stack levels required when called: 6
  3236 ;; This function calls:
  3237 ;;		Nothing
  3238 ;; This function is called by:
  3239 ;;		_SYSTEM_Initialize
  3240 ;; This function uses a non-reentrant model
  3241 ;;
  3242                           
  3243     029C                     _WDT_Initialize:	
  3244                           ;psect for function _WDT_Initialize
  3245                           
  3246     029C                     l1975:	
  3247                           ;incstack = 0
  3248                           ; Regs used in _WDT_Initialize: [wreg]
  3249                           
  3250                           
  3251                           ;mcc_generated_files/mcc.c: 79:     WDTCON = 0x10;
  3252     029C  3010               	movlw	16
  3253     029D  0021               	movlb	1	; select bank1
  3254     029E  0097               	movwf	23	;volatile
  3255     029F                     l121:
  3256     029F  0008               	return
  3257     02A0                     __end_of_WDT_Initialize:
  3258                           
  3259                           	psect	text3
  3260     01D2                     __ptext3:	
  3261 ;; *************** function _PWM4_Initialize *****************
  3262 ;; Defined at:
  3263 ;;		line 58 in file "mcc_generated_files/pwm4.c"
  3264 ;; Parameters:    Size  Location     Type
  3265 ;;		None
  3266 ;; Auto vars:     Size  Location     Type
  3267 ;;		None
  3268 ;; Return value:  Size  Location     Type
  3269 ;;                  1    wreg      void 
  3270 ;; Registers used:
  3271 ;;		wreg, status,2
  3272 ;; Tracked objects:
  3273 ;;		On entry : 0/0
  3274 ;;		On exit  : 0/0
  3275 ;;		Unchanged: 0/0
  3276 ;; Data sizes:     COMMON   BANK0   BANK1   BANK2   BANK3   BANK4   BANK5   BANK6   BANK7   BANK8   BANK9  BANK10  BANK1
      +1  BANK12
  3277 ;;      Params:         0       0       0       0       0       0       0       0       0       0       0       0       
      +0       0
  3278 ;;      Locals:         0       0       0       0       0       0       0       0       0       0       0       0       
      +0       0
  3279 ;;      Temps:          0       0       0       0       0       0       0       0       0       0       0       0       
      +0       0
  3280 ;;      Totals:         0       0       0       0       0       0       0       0       0       0       0       0       
      +0       0
  3281 ;;Total ram usage:        0 bytes
  3282 ;; Hardware stack levels used: 1
  3283 ;; Hardware stack levels required when called: 6
  3284 ;; This function calls:
  3285 ;;		Nothing
  3286 ;; This function is called by:
  3287 ;;		_SYSTEM_Initialize
  3288 ;; This function uses a non-reentrant model
  3289 ;;
  3290                           
  3291     01D2                     _PWM4_Initialize:	
  3292                           ;psect for function _PWM4_Initialize
  3293                           
  3294     01D2                     l2029:	
  3295                           ;incstack = 0
  3296                           ; Regs used in _PWM4_Initialize: [wreg+status,2]
  3297                           
  3298                           
  3299                           ;mcc_generated_files/pwm4.c: 63:     PWM4INTE = 0x00;
  3300     01D2  003B               	movlb	27	; select bank27
  3301     01D3  01CC               	clrf	76	;volatile
  3302                           
  3303                           ;mcc_generated_files/pwm4.c: 66:     PWM4INTF = 0x00;
  3304     01D4  01CD               	clrf	77	;volatile
  3305     01D5                     l2031:
  3306                           
  3307                           ;mcc_generated_files/pwm4.c: 69:     PWM4CLKCON = 0x20;
  3308     01D5  3020               	movlw	32
  3309     01D6  00CE               	movwf	78	;volatile
  3310     01D7                     l2033:
  3311                           
  3312                           ;mcc_generated_files/pwm4.c: 72:     PWM4LDCON = 0x00;
  3313     01D7  01CF               	clrf	79	;volatile
  3314     01D8                     l2035:
  3315                           
  3316                           ;mcc_generated_files/pwm4.c: 75:     PWM4OFCON = 0x00;
  3317     01D8  01D0               	clrf	80	;volatile
  3318     01D9                     l2037:
  3319                           
  3320                           ;mcc_generated_files/pwm4.c: 78:     PWM4PHH = 0x00;
  3321     01D9  01C2               	clrf	66	;volatile
  3322     01DA                     l2039:
  3323                           
  3324                           ;mcc_generated_files/pwm4.c: 81:     PWM4PHL = 0x00;
  3325     01DA  01C1               	clrf	65	;volatile
  3326     01DB                     l2041:
  3327                           
  3328                           ;mcc_generated_files/pwm4.c: 84:     PWM4DCH = 0x2E;
  3329     01DB  302E               	movlw	46
  3330     01DC  00C4               	movwf	68	;volatile
  3331     01DD                     l2043:
  3332                           
  3333                           ;mcc_generated_files/pwm4.c: 87:     PWM4DCL = 0x14;
  3334     01DD  3014               	movlw	20
  3335     01DE  00C3               	movwf	67	;volatile
  3336     01DF                     l2045:
  3337                           
  3338                           ;mcc_generated_files/pwm4.c: 90:     PWM4PRH = 0xFF;
  3339     01DF  30FF               	movlw	255
  3340     01E0  00C6               	movwf	70	;volatile
  3341     01E1                     l2047:
  3342                           
  3343                           ;mcc_generated_files/pwm4.c: 93:     PWM4PRL = 0xFF;
  3344     01E1  30FF               	movlw	255
  3345     01E2  00C5               	movwf	69	;volatile
  3346     01E3                     l2049:
  3347                           
  3348                           ;mcc_generated_files/pwm4.c: 96:     PWM4OFH = 0x00;
  3349     01E3  01C8               	clrf	72	;volatile
  3350                           
  3351                           ;mcc_generated_files/pwm4.c: 99:     PWM4OFL = 0x01;
  3352     01E4  3001               	movlw	1
  3353     01E5  00C7               	movwf	71	;volatile
  3354     01E6                     l2051:
  3355                           
  3356                           ;mcc_generated_files/pwm4.c: 102:     PWM4TMRH = 0x00;
  3357     01E6  01CA               	clrf	74	;volatile
  3358     01E7                     l2053:
  3359                           
  3360                           ;mcc_generated_files/pwm4.c: 105:     PWM4TMRL = 0x00;
  3361     01E7  01C9               	clrf	73	;volatile
  3362                           
  3363                           ;mcc_generated_files/pwm4.c: 108:     PWM4CON = 0x80;
  3364     01E8  3080               	movlw	128
  3365     01E9  00CB               	movwf	75	;volatile
  3366     01EA                     l402:
  3367     01EA  0008               	return
  3368     01EB                     __end_of_PWM4_Initialize:
  3369                           
  3370                           	psect	text4
  3371     01EB                     __ptext4:	
  3372 ;; *************** function _PWM3_Initialize *****************
  3373 ;; Defined at:
  3374 ;;		line 58 in file "mcc_generated_files/pwm3.c"
  3375 ;; Parameters:    Size  Location     Type
  3376 ;;		None
  3377 ;; Auto vars:     Size  Location     Type
  3378 ;;		None
  3379 ;; Return value:  Size  Location     Type
  3380 ;;                  1    wreg      void 
  3381 ;; Registers used:
  3382 ;;		wreg, status,2
  3383 ;; Tracked objects:
  3384 ;;		On entry : 0/0
  3385 ;;		On exit  : 0/0
  3386 ;;		Unchanged: 0/0
  3387 ;; Data sizes:     COMMON   BANK0   BANK1   BANK2   BANK3   BANK4   BANK5   BANK6   BANK7   BANK8   BANK9  BANK10  BANK1
      +1  BANK12
  3388 ;;      Params:         0       0       0       0       0       0       0       0       0       0       0       0       
      +0       0
  3389 ;;      Locals:         0       0       0       0       0       0       0       0       0       0       0       0       
      +0       0
  3390 ;;      Temps:          0       0       0       0       0       0       0       0       0       0       0       0       
      +0       0
  3391 ;;      Totals:         0       0       0       0       0       0       0       0       0       0       0       0       
      +0       0
  3392 ;;Total ram usage:        0 bytes
  3393 ;; Hardware stack levels used: 1
  3394 ;; Hardware stack levels required when called: 6
  3395 ;; This function calls:
  3396 ;;		Nothing
  3397 ;; This function is called by:
  3398 ;;		_SYSTEM_Initialize
  3399 ;; This function uses a non-reentrant model
  3400 ;;
  3401                           
  3402     01EB                     _PWM3_Initialize:	
  3403                           ;psect for function _PWM3_Initialize
  3404                           
  3405     01EB                     l2055:	
  3406                           ;incstack = 0
  3407                           ; Regs used in _PWM3_Initialize: [wreg+status,2]
  3408                           
  3409                           
  3410                           ;mcc_generated_files/pwm3.c: 63:     PWM3INTE = 0x00;
  3411     01EB  003B               	movlb	27	; select bank27
  3412     01EC  01BC               	clrf	60	;volatile
  3413                           
  3414                           ;mcc_generated_files/pwm3.c: 66:     PWM3INTF = 0x00;
  3415     01ED  01BD               	clrf	61	;volatile
  3416     01EE                     l2057:
  3417                           
  3418                           ;mcc_generated_files/pwm3.c: 69:     PWM3CLKCON = 0x20;
  3419     01EE  3020               	movlw	32
  3420     01EF  00BE               	movwf	62	;volatile
  3421     01F0                     l2059:
  3422                           
  3423                           ;mcc_generated_files/pwm3.c: 72:     PWM3LDCON = 0x00;
  3424     01F0  01BF               	clrf	63	;volatile
  3425     01F1                     l2061:
  3426                           
  3427                           ;mcc_generated_files/pwm3.c: 75:     PWM3OFCON = 0x00;
  3428     01F1  01C0               	clrf	64	;volatile
  3429     01F2                     l2063:
  3430                           
  3431                           ;mcc_generated_files/pwm3.c: 78:     PWM3PHH = 0x00;
  3432     01F2  01B2               	clrf	50	;volatile
  3433     01F3                     l2065:
  3434                           
  3435                           ;mcc_generated_files/pwm3.c: 81:     PWM3PHL = 0x00;
  3436     01F3  01B1               	clrf	49	;volatile
  3437     01F4                     l2067:
  3438                           
  3439                           ;mcc_generated_files/pwm3.c: 84:     PWM3DCH = 0x2E;
  3440     01F4  302E               	movlw	46
  3441     01F5  00B4               	movwf	52	;volatile
  3442     01F6                     l2069:
  3443                           
  3444                           ;mcc_generated_files/pwm3.c: 87:     PWM3DCL = 0x14;
  3445     01F6  3014               	movlw	20
  3446     01F7  00B3               	movwf	51	;volatile
  3447     01F8                     l2071:
  3448                           
  3449                           ;mcc_generated_files/pwm3.c: 90:     PWM3PRH = 0xFF;
  3450     01F8  30FF               	movlw	255
  3451     01F9  00B6               	movwf	54	;volatile
  3452     01FA                     l2073:
  3453                           
  3454                           ;mcc_generated_files/pwm3.c: 93:     PWM3PRL = 0xFF;
  3455     01FA  30FF               	movlw	255
  3456     01FB  00B5               	movwf	53	;volatile
  3457     01FC                     l2075:
  3458                           
  3459                           ;mcc_generated_files/pwm3.c: 96:     PWM3OFH = 0x00;
  3460     01FC  01B8               	clrf	56	;volatile
  3461                           
  3462                           ;mcc_generated_files/pwm3.c: 99:     PWM3OFL = 0x01;
  3463     01FD  3001               	movlw	1
  3464     01FE  00B7               	movwf	55	;volatile
  3465     01FF                     l2077:
  3466                           
  3467                           ;mcc_generated_files/pwm3.c: 102:     PWM3TMRH = 0x00;
  3468     01FF  01BA               	clrf	58	;volatile
  3469     0200                     l2079:
  3470                           
  3471                           ;mcc_generated_files/pwm3.c: 105:     PWM3TMRL = 0x00;
  3472     0200  01B9               	clrf	57	;volatile
  3473                           
  3474                           ;mcc_generated_files/pwm3.c: 108:     PWM3CON = 0x80;
  3475     0201  3080               	movlw	128
  3476     0202  00BB               	movwf	59	;volatile
  3477     0203                     l322:
  3478     0203  0008               	return
  3479     0204                     __end_of_PWM3_Initialize:
  3480                           
  3481                           	psect	text5
  3482     0204                     __ptext5:	
  3483 ;; *************** function _PWM2_Initialize *****************
  3484 ;; Defined at:
  3485 ;;		line 58 in file "mcc_generated_files/pwm2.c"
  3486 ;; Parameters:    Size  Location     Type
  3487 ;;		None
  3488 ;; Auto vars:     Size  Location     Type
  3489 ;;		None
  3490 ;; Return value:  Size  Location     Type
  3491 ;;                  1    wreg      void 
  3492 ;; Registers used:
  3493 ;;		wreg, status,2
  3494 ;; Tracked objects:
  3495 ;;		On entry : 0/0
  3496 ;;		On exit  : 0/0
  3497 ;;		Unchanged: 0/0
  3498 ;; Data sizes:     COMMON   BANK0   BANK1   BANK2   BANK3   BANK4   BANK5   BANK6   BANK7   BANK8   BANK9  BANK10  BANK1
      +1  BANK12
  3499 ;;      Params:         0       0       0       0       0       0       0       0       0       0       0       0       
      +0       0
  3500 ;;      Locals:         0       0       0       0       0       0       0       0       0       0       0       0       
      +0       0
  3501 ;;      Temps:          0       0       0       0       0       0       0       0       0       0       0       0       
      +0       0
  3502 ;;      Totals:         0       0       0       0       0       0       0       0       0       0       0       0       
      +0       0
  3503 ;;Total ram usage:        0 bytes
  3504 ;; Hardware stack levels used: 1
  3505 ;; Hardware stack levels required when called: 6
  3506 ;; This function calls:
  3507 ;;		Nothing
  3508 ;; This function is called by:
  3509 ;;		_SYSTEM_Initialize
  3510 ;; This function uses a non-reentrant model
  3511 ;;
  3512                           
  3513     0204                     _PWM2_Initialize:	
  3514                           ;psect for function _PWM2_Initialize
  3515                           
  3516     0204                     l2003:	
  3517                           ;incstack = 0
  3518                           ; Regs used in _PWM2_Initialize: [wreg+status,2]
  3519                           
  3520                           
  3521                           ;mcc_generated_files/pwm2.c: 63:     PWM2INTE = 0x00;
  3522     0204  003B               	movlb	27	; select bank27
  3523     0205  01AC               	clrf	44	;volatile
  3524                           
  3525                           ;mcc_generated_files/pwm2.c: 66:     PWM2INTF = 0x00;
  3526     0206  01AD               	clrf	45	;volatile
  3527     0207                     l2005:
  3528                           
  3529                           ;mcc_generated_files/pwm2.c: 69:     PWM2CLKCON = 0x20;
  3530     0207  3020               	movlw	32
  3531     0208  00AE               	movwf	46	;volatile
  3532     0209                     l2007:
  3533                           
  3534                           ;mcc_generated_files/pwm2.c: 72:     PWM2LDCON = 0x00;
  3535     0209  01AF               	clrf	47	;volatile
  3536     020A                     l2009:
  3537                           
  3538                           ;mcc_generated_files/pwm2.c: 75:     PWM2OFCON = 0x00;
  3539     020A  01B0               	clrf	48	;volatile
  3540     020B                     l2011:
  3541                           
  3542                           ;mcc_generated_files/pwm2.c: 78:     PWM2PHH = 0x00;
  3543     020B  01A2               	clrf	34	;volatile
  3544     020C                     l2013:
  3545                           
  3546                           ;mcc_generated_files/pwm2.c: 81:     PWM2PHL = 0x00;
  3547     020C  01A1               	clrf	33	;volatile
  3548     020D                     l2015:
  3549                           
  3550                           ;mcc_generated_files/pwm2.c: 84:     PWM2DCH = 0x2E;
  3551     020D  302E               	movlw	46
  3552     020E  00A4               	movwf	36	;volatile
  3553     020F                     l2017:
  3554                           
  3555                           ;mcc_generated_files/pwm2.c: 87:     PWM2DCL = 0x14;
  3556     020F  3014               	movlw	20
  3557     0210  00A3               	movwf	35	;volatile
  3558     0211                     l2019:
  3559                           
  3560                           ;mcc_generated_files/pwm2.c: 90:     PWM2PRH = 0xFF;
  3561     0211  30FF               	movlw	255
  3562     0212  00A6               	movwf	38	;volatile
  3563     0213                     l2021:
  3564                           
  3565                           ;mcc_generated_files/pwm2.c: 93:     PWM2PRL = 0xFF;
  3566     0213  30FF               	movlw	255
  3567     0214  00A5               	movwf	37	;volatile
  3568     0215                     l2023:
  3569                           
  3570                           ;mcc_generated_files/pwm2.c: 96:     PWM2OFH = 0x00;
  3571     0215  01A8               	clrf	40	;volatile
  3572                           
  3573                           ;mcc_generated_files/pwm2.c: 99:     PWM2OFL = 0x01;
  3574     0216  3001               	movlw	1
  3575     0217  00A7               	movwf	39	;volatile
  3576     0218                     l2025:
  3577                           
  3578                           ;mcc_generated_files/pwm2.c: 102:     PWM2TMRH = 0x00;
  3579     0218  01AA               	clrf	42	;volatile
  3580     0219                     l2027:
  3581                           
  3582                           ;mcc_generated_files/pwm2.c: 105:     PWM2TMRL = 0x00;
  3583     0219  01A9               	clrf	41	;volatile
  3584                           
  3585                           ;mcc_generated_files/pwm2.c: 108:     PWM2CON = 0x80;
  3586     021A  3080               	movlw	128
  3587     021B  00AB               	movwf	43	;volatile
  3588     021C                     l242:
  3589     021C  0008               	return
  3590     021D                     __end_of_PWM2_Initialize:
  3591                           
  3592                           	psect	text6
  3593     021D                     __ptext6:	
  3594 ;; *************** function _PWM1_Initialize *****************
  3595 ;; Defined at:
  3596 ;;		line 58 in file "mcc_generated_files/pwm1.c"
  3597 ;; Parameters:    Size  Location     Type
  3598 ;;		None
  3599 ;; Auto vars:     Size  Location     Type
  3600 ;;		None
  3601 ;; Return value:  Size  Location     Type
  3602 ;;                  1    wreg      void 
  3603 ;; Registers used:
  3604 ;;		wreg, status,2
  3605 ;; Tracked objects:
  3606 ;;		On entry : 0/0
  3607 ;;		On exit  : 0/0
  3608 ;;		Unchanged: 0/0
  3609 ;; Data sizes:     COMMON   BANK0   BANK1   BANK2   BANK3   BANK4   BANK5   BANK6   BANK7   BANK8   BANK9  BANK10  BANK1
      +1  BANK12
  3610 ;;      Params:         0       0       0       0       0       0       0       0       0       0       0       0       
      +0       0
  3611 ;;      Locals:         0       0       0       0       0       0       0       0       0       0       0       0       
      +0       0
  3612 ;;      Temps:          0       0       0       0       0       0       0       0       0       0       0       0       
      +0       0
  3613 ;;      Totals:         0       0       0       0       0       0       0       0       0       0       0       0       
      +0       0
  3614 ;;Total ram usage:        0 bytes
  3615 ;; Hardware stack levels used: 1
  3616 ;; Hardware stack levels required when called: 6
  3617 ;; This function calls:
  3618 ;;		Nothing
  3619 ;; This function is called by:
  3620 ;;		_SYSTEM_Initialize
  3621 ;; This function uses a non-reentrant model
  3622 ;;
  3623                           
  3624     021D                     _PWM1_Initialize:	
  3625                           ;psect for function _PWM1_Initialize
  3626                           
  3627     021D                     l1977:	
  3628                           ;incstack = 0
  3629                           ; Regs used in _PWM1_Initialize: [wreg+status,2]
  3630                           
  3631                           
  3632                           ;mcc_generated_files/pwm1.c: 63:     PWM1INTE = 0x00;
  3633     021D  003B               	movlb	27	; select bank27
  3634     021E  019C               	clrf	28	;volatile
  3635                           
  3636                           ;mcc_generated_files/pwm1.c: 66:     PWM1INTF = 0x00;
  3637     021F  019D               	clrf	29	;volatile
  3638     0220                     l1979:
  3639                           
  3640                           ;mcc_generated_files/pwm1.c: 69:     PWM1CLKCON = 0x20;
  3641     0220  3020               	movlw	32
  3642     0221  009E               	movwf	30	;volatile
  3643     0222                     l1981:
  3644                           
  3645                           ;mcc_generated_files/pwm1.c: 72:     PWM1LDCON = 0x00;
  3646     0222  019F               	clrf	31	;volatile
  3647     0223                     l1983:
  3648                           
  3649                           ;mcc_generated_files/pwm1.c: 75:     PWM1OFCON = 0x00;
  3650     0223  01A0               	clrf	32	;volatile
  3651     0224                     l1985:
  3652                           
  3653                           ;mcc_generated_files/pwm1.c: 78:     PWM1PHH = 0x00;
  3654     0224  0192               	clrf	18	;volatile
  3655     0225                     l1987:
  3656                           
  3657                           ;mcc_generated_files/pwm1.c: 81:     PWM1PHL = 0x00;
  3658     0225  0191               	clrf	17	;volatile
  3659     0226                     l1989:
  3660                           
  3661                           ;mcc_generated_files/pwm1.c: 84:     PWM1DCH = 0x2E;
  3662     0226  302E               	movlw	46
  3663     0227  0094               	movwf	20	;volatile
  3664     0228                     l1991:
  3665                           
  3666                           ;mcc_generated_files/pwm1.c: 87:     PWM1DCL = 0x14;
  3667     0228  3014               	movlw	20
  3668     0229  0093               	movwf	19	;volatile
  3669     022A                     l1993:
  3670                           
  3671                           ;mcc_generated_files/pwm1.c: 90:     PWM1PRH = 0xFF;
  3672     022A  30FF               	movlw	255
  3673     022B  0096               	movwf	22	;volatile
  3674     022C                     l1995:
  3675                           
  3676                           ;mcc_generated_files/pwm1.c: 93:     PWM1PRL = 0xFF;
  3677     022C  30FF               	movlw	255
  3678     022D  0095               	movwf	21	;volatile
  3679     022E                     l1997:
  3680                           
  3681                           ;mcc_generated_files/pwm1.c: 96:     PWM1OFH = 0x00;
  3682     022E  0198               	clrf	24	;volatile
  3683                           
  3684                           ;mcc_generated_files/pwm1.c: 99:     PWM1OFL = 0x01;
  3685     022F  3001               	movlw	1
  3686     0230  0097               	movwf	23	;volatile
  3687     0231                     l1999:
  3688                           
  3689                           ;mcc_generated_files/pwm1.c: 102:     PWM1TMRH = 0x00;
  3690     0231  019A               	clrf	26	;volatile
  3691     0232                     l2001:
  3692                           
  3693                           ;mcc_generated_files/pwm1.c: 105:     PWM1TMRL = 0x00;
  3694     0232  0199               	clrf	25	;volatile
  3695                           
  3696                           ;mcc_generated_files/pwm1.c: 108:     PWM1CON = 0x80;
  3697     0233  3080               	movlw	128
  3698     0234  009B               	movwf	27	;volatile
  3699     0235                     l162:
  3700     0235  0008               	return
  3701     0236                     __end_of_PWM1_Initialize:
  3702                           
  3703                           	psect	text7
  3704     0162                     __ptext7:	
  3705 ;; *************** function _PIN_MANAGER_Initialize *****************
  3706 ;; Defined at:
  3707 ;;		line 57 in file "mcc_generated_files/pin_manager.c"
  3708 ;; Parameters:    Size  Location     Type
  3709 ;;		None
  3710 ;; Auto vars:     Size  Location     Type
  3711 ;;		None
  3712 ;; Return value:  Size  Location     Type
  3713 ;;                  1    wreg      void 
  3714 ;; Registers used:
  3715 ;;		wreg, status,2, status,0, pclath, cstack
  3716 ;; Tracked objects:
  3717 ;;		On entry : 0/0
  3718 ;;		On exit  : 0/0
  3719 ;;		Unchanged: 0/0
  3720 ;; Data sizes:     COMMON   BANK0   BANK1   BANK2   BANK3   BANK4   BANK5   BANK6   BANK7   BANK8   BANK9  BANK10  BANK1
      +1  BANK12
  3721 ;;      Params:         0       0       0       0       0       0       0       0       0       0       0       0       
      +0       0
  3722 ;;      Locals:         0       0       0       0       0       0       0       0       0       0       0       0       
      +0       0
  3723 ;;      Temps:          0       0       0       0       0       0       0       0       0       0       0       0       
      +0       0
  3724 ;;      Totals:         0       0       0       0       0       0       0       0       0       0       0       0       
      +0       0
  3725 ;;Total ram usage:        0 bytes
  3726 ;; Hardware stack levels used: 1
  3727 ;; Hardware stack levels required when called: 7
  3728 ;; This function calls:
  3729 ;;		_IOCCF4_SetInterruptHandler
  3730 ;; This function is called by:
  3731 ;;		_SYSTEM_Initialize
  3732 ;; This function uses a non-reentrant model
  3733 ;;
  3734                           
  3735     0162                     _PIN_MANAGER_Initialize:	
  3736                           ;psect for function _PIN_MANAGER_Initialize
  3737                           
  3738     0162                     l1921:	
  3739                           ;incstack = 0
  3740                           ; Regs used in _PIN_MANAGER_Initialize: [wreg+status,2+status,0+pclath+cstack]
  3741                           
  3742                           
  3743                           ;mcc_generated_files/pin_manager.c: 62:     LATA = 0x00;
  3744     0162  0022               	movlb	2	; select bank2
  3745     0163  018C               	clrf	12	;volatile
  3746                           
  3747                           ;mcc_generated_files/pin_manager.c: 63:     LATB = 0x00;
  3748     0164  018D               	clrf	13	;volatile
  3749                           
  3750                           ;mcc_generated_files/pin_manager.c: 64:     LATC = 0x00;
  3751     0165  018E               	clrf	14	;volatile
  3752     0166                     l1923:
  3753                           
  3754                           ;mcc_generated_files/pin_manager.c: 69:     TRISA = 0x2A;
  3755     0166  302A               	movlw	42
  3756     0167  0021               	movlb	1	; select bank1
  3757     0168  008C               	movwf	12	;volatile
  3758     0169                     l1925:
  3759                           
  3760                           ;mcc_generated_files/pin_manager.c: 70:     TRISB = 0x00;
  3761     0169  018D               	clrf	13	;volatile
  3762                           
  3763                           ;mcc_generated_files/pin_manager.c: 71:     TRISC = 0x58;
  3764     016A  3058               	movlw	88
  3765     016B  008E               	movwf	14	;volatile
  3766     016C                     l1927:
  3767                           
  3768                           ;mcc_generated_files/pin_manager.c: 76:     ANSELC = 0x00;
  3769     016C  0023               	movlb	3	; select bank3
  3770     016D  018E               	clrf	14	;volatile
  3771     016E                     l1929:
  3772                           
  3773                           ;mcc_generated_files/pin_manager.c: 77:     ANSELB = 0x00;
  3774     016E  018D               	clrf	13	;volatile
  3775                           
  3776                           ;mcc_generated_files/pin_manager.c: 78:     ANSELA = 0x02;
  3777     016F  3002               	movlw	2
  3778     0170  008C               	movwf	12	;volatile
  3779     0171                     l1931:
  3780                           
  3781                           ;mcc_generated_files/pin_manager.c: 83:     WPUB = 0x00;
  3782     0171  0024               	movlb	4	; select bank4
  3783     0172  018D               	clrf	13	;volatile
  3784     0173                     l1933:
  3785                           
  3786                           ;mcc_generated_files/pin_manager.c: 84:     WPUA = 0x00;
  3787     0173  018C               	clrf	12	;volatile
  3788     0174                     l1935:
  3789                           
  3790                           ;mcc_generated_files/pin_manager.c: 85:     WPUC = 0x00;
  3791     0174  018E               	clrf	14	;volatile
  3792     0175                     l1937:
  3793                           
  3794                           ;mcc_generated_files/pin_manager.c: 86:     OPTION_REGbits.nWPUEN = 1;
  3795     0175  0021               	movlb	1	; select bank1
  3796     0176  1795               	bsf	21,7	;volatile
  3797     0177                     l1939:
  3798                           
  3799                           ;mcc_generated_files/pin_manager.c: 91:     ODCONA = 0x00;
  3800     0177  0025               	movlb	5	; select bank5
  3801     0178  018C               	clrf	12	;volatile
  3802     0179                     l1941:
  3803                           
  3804                           ;mcc_generated_files/pin_manager.c: 92:     ODCONB = 0x00;
  3805     0179  018D               	clrf	13	;volatile
  3806     017A                     l1943:
  3807                           
  3808                           ;mcc_generated_files/pin_manager.c: 93:     ODCONC = 0x00;
  3809     017A  018E               	clrf	14	;volatile
  3810                           
  3811                           ;mcc_generated_files/pin_manager.c: 98:     SLRCONA = 0x37;
  3812     017B  3037               	movlw	55
  3813     017C  0026               	movlb	6	; select bank6
  3814     017D  008C               	movwf	12	;volatile
  3815                           
  3816                           ;mcc_generated_files/pin_manager.c: 99:     SLRCONB = 0xF0;
  3817     017E  30F0               	movlw	240
  3818     017F  008D               	movwf	13	;volatile
  3819                           
  3820                           ;mcc_generated_files/pin_manager.c: 100:     SLRCONC = 0xFF;
  3821     0180  30FF               	movlw	255
  3822     0181  008E               	movwf	14	;volatile
  3823                           
  3824                           ;mcc_generated_files/pin_manager.c: 105:     INLVLA = 0x3F;
  3825     0182  303F               	movlw	63
  3826     0183  0027               	movlb	7	; select bank7
  3827     0184  008C               	movwf	12	;volatile
  3828                           
  3829                           ;mcc_generated_files/pin_manager.c: 106:     INLVLB = 0xF0;
  3830     0185  30F0               	movlw	240
  3831     0186  008D               	movwf	13	;volatile
  3832                           
  3833                           ;mcc_generated_files/pin_manager.c: 107:     INLVLC = 0xFF;
  3834     0187  30FF               	movlw	255
  3835     0188  008E               	movwf	14	;volatile
  3836     0189                     l1945:
  3837                           
  3838                           ;mcc_generated_files/pin_manager.c: 114:     IOCCFbits.IOCCF4 = 0;
  3839     0189  1219               	bcf	25,4	;volatile
  3840     018A                     l1947:
  3841                           
  3842                           ;mcc_generated_files/pin_manager.c: 116:     IOCCNbits.IOCCN4 = 0;
  3843     018A  1218               	bcf	24,4	;volatile
  3844     018B                     l1949:
  3845                           
  3846                           ;mcc_generated_files/pin_manager.c: 118:     IOCCPbits.IOCCP4 = 1;
  3847     018B  1617               	bsf	23,4	;volatile
  3848     018C                     l1951:
  3849                           
  3850                           ;mcc_generated_files/pin_manager.c: 123:     IOCCF4_SetInterruptHandler(IOCCF4_DefaultIn
      +                          terruptHandler);
  3851     018C  30B8               	movlw	low _IOCCF4_DefaultInterruptHandler
  3852     018D  0020               	movlb	0	; select bank0
  3853     018E  00B3               	movwf	IOCCF4_SetInterruptHandler@InterruptHandler
  3854     018F  3002               	movlw	high _IOCCF4_DefaultInterruptHandler
  3855     0190  00B4               	movwf	IOCCF4_SetInterruptHandler@InterruptHandler+1
  3856     0191  3182  227E  3181   	fcall	_IOCCF4_SetInterruptHandler
  3857     0194                     l1953:
  3858                           
  3859                           ;mcc_generated_files/pin_manager.c: 126:     INTCONbits.IOCIE = 1;
  3860     0194  158B               	bsf	11,3	;volatile
  3861     0195                     l1955:
  3862                           
  3863                           ;mcc_generated_files/pin_manager.c: 129:     RC0PPS = 0x04;
  3864     0195  3004               	movlw	4
  3865     0196  003D               	movlb	29	; select bank29
  3866     0197  00A0               	movwf	32	;volatile
  3867     0198                     l1957:
  3868                           
  3869                           ;mcc_generated_files/pin_manager.c: 130:     RB5PPS = 0x06;
  3870     0198  3006               	movlw	6
  3871     0199  009D               	movwf	29	;volatile
  3872     019A                     l1959:
  3873                           
  3874                           ;mcc_generated_files/pin_manager.c: 131:     RB4PPS = 0x05;
  3875     019A  3005               	movlw	5
  3876     019B  009C               	movwf	28	;volatile
  3877     019C                     l1961:
  3878                           
  3879                           ;mcc_generated_files/pin_manager.c: 132:     RA0PPS = 0x03;
  3880     019C  3003               	movlw	3
  3881     019D  0090               	movwf	16	;volatile
  3882     019E                     l71:
  3883     019E  0008               	return
  3884     019F                     __end_of_PIN_MANAGER_Initialize:
  3885                           
  3886                           	psect	text8
  3887     027E                     __ptext8:	
  3888 ;; *************** function _IOCCF4_SetInterruptHandler *****************
  3889 ;; Defined at:
  3890 ;;		line 162 in file "mcc_generated_files/pin_manager.c"
  3891 ;; Parameters:    Size  Location     Type
  3892 ;;  InterruptHan    2    0[BANK0 ] PTR FTN()void 
  3893 ;;		 -> int_strb(1), IOCCF4_DefaultInterruptHandler(1), 
  3894 ;; Auto vars:     Size  Location     Type
  3895 ;;		None
  3896 ;; Return value:  Size  Location     Type
  3897 ;;                  1    wreg      void 
  3898 ;; Registers used:
  3899 ;;		wreg
  3900 ;; Tracked objects:
  3901 ;;		On entry : 0/0
  3902 ;;		On exit  : 0/0
  3903 ;;		Unchanged: 0/0
  3904 ;; Data sizes:     COMMON   BANK0   BANK1   BANK2   BANK3   BANK4   BANK5   BANK6   BANK7   BANK8   BANK9  BANK10  BANK1
      +1  BANK12
  3905 ;;      Params:         0       2       0       0       0       0       0       0       0       0       0       0       
      +0       0
  3906 ;;      Locals:         0       0       0       0       0       0       0       0       0       0       0       0       
      +0       0
  3907 ;;      Temps:          0       0       0       0       0       0       0       0       0       0       0       0       
      +0       0
  3908 ;;      Totals:         0       2       0       0       0       0       0       0       0       0       0       0       
      +0       0
  3909 ;;Total ram usage:        2 bytes
  3910 ;; Hardware stack levels used: 1
  3911 ;; Hardware stack levels required when called: 6
  3912 ;; This function calls:
  3913 ;;		Nothing
  3914 ;; This function is called by:
  3915 ;;		_PIN_MANAGER_Initialize
  3916 ;;		_main
  3917 ;; This function uses a non-reentrant model
  3918 ;;
  3919                           
  3920     027E                     _IOCCF4_SetInterruptHandler:	
  3921                           ;psect for function _IOCCF4_SetInterruptHandler
  3922                           
  3923     027E                     l1893:	
  3924                           ;incstack = 0
  3925                           ; Regs used in _IOCCF4_SetInterruptHandler: [wreg]
  3926                           
  3927                           
  3928                           ;mcc_generated_files/pin_manager.c: 163:     IOCCF4_InterruptHandler = InterruptHandler;
  3929     027E  0020               	movlb	0	; select bank0
  3930     027F  0834               	movf	IOCCF4_SetInterruptHandler@InterruptHandler+1,w
  3931     0280  00B8               	movwf	_IOCCF4_InterruptHandler+1
  3932     0281  0833               	movf	IOCCF4_SetInterruptHandler@InterruptHandler,w
  3933     0282  00B7               	movwf	_IOCCF4_InterruptHandler
  3934     0283                     l82:
  3935     0283  0008               	return
  3936     0284                     __end_of_IOCCF4_SetInterruptHandler:
  3937                           
  3938                           	psect	text9
  3939     025B                     __ptext9:	
  3940 ;; *************** function _OSCILLATOR_Initialize *****************
  3941 ;; Defined at:
  3942 ;;		line 62 in file "mcc_generated_files/mcc.c"
  3943 ;; Parameters:    Size  Location     Type
  3944 ;;		None
  3945 ;; Auto vars:     Size  Location     Type
  3946 ;;		None
  3947 ;; Return value:  Size  Location     Type
  3948 ;;                  1    wreg      void 
  3949 ;; Registers used:
  3950 ;;		wreg, status,2
  3951 ;; Tracked objects:
  3952 ;;		On entry : 0/0
  3953 ;;		On exit  : 0/0
  3954 ;;		Unchanged: 0/0
  3955 ;; Data sizes:     COMMON   BANK0   BANK1   BANK2   BANK3   BANK4   BANK5   BANK6   BANK7   BANK8   BANK9  BANK10  BANK1
      +1  BANK12
  3956 ;;      Params:         0       0       0       0       0       0       0       0       0       0       0       0       
      +0       0
  3957 ;;      Locals:         0       0       0       0       0       0       0       0       0       0       0       0       
      +0       0
  3958 ;;      Temps:          0       0       0       0       0       0       0       0       0       0       0       0       
      +0       0
  3959 ;;      Totals:         0       0       0       0       0       0       0       0       0       0       0       0       
      +0       0
  3960 ;;Total ram usage:        0 bytes
  3961 ;; Hardware stack levels used: 1
  3962 ;; Hardware stack levels required when called: 6
  3963 ;; This function calls:
  3964 ;;		Nothing
  3965 ;; This function is called by:
  3966 ;;		_SYSTEM_Initialize
  3967 ;; This function uses a non-reentrant model
  3968 ;;
  3969                           
  3970     025B                     _OSCILLATOR_Initialize:	
  3971                           ;psect for function _OSCILLATOR_Initialize
  3972                           
  3973     025B                     l1969:	
  3974                           ;incstack = 0
  3975                           ; Regs used in _OSCILLATOR_Initialize: [wreg+status,2]
  3976                           
  3977                           
  3978                           ;mcc_generated_files/mcc.c: 65:     OSCCON = 0x70;
  3979     025B  3070               	movlw	112
  3980     025C  0021               	movlb	1	; select bank1
  3981     025D  0099               	movwf	25	;volatile
  3982     025E                     l1971:
  3983                           
  3984                           ;mcc_generated_files/mcc.c: 67:     OSCTUNE = 0x00;
  3985     025E  0198               	clrf	24	;volatile
  3986     025F                     l1973:
  3987                           
  3988                           ;mcc_generated_files/mcc.c: 69:     BORCON = 0x00;
  3989     025F  0022               	movlb	2	; select bank2
  3990     0260  0196               	clrf	22	;volatile
  3991     0261                     l115:	
  3992                           ;mcc_generated_files/mcc.c: 72:     {;mcc_generated_files/mcc.c: 73:     }
  3993                           
  3994                           
  3995                           ;mcc_generated_files/mcc.c: 71:     while(PLLR == 0)
  3996     0261  0021               	movlb	1	; select bank1
  3997     0262  1F1A               	btfss	26,6	;volatile
  3998     0263  2A65               	goto	u461
  3999     0264  2A66               	goto	u460
  4000     0265                     u461:
  4001     0265  2A61               	goto	l115
  4002     0266                     u460:
  4003     0266                     l118:
  4004     0266  0008               	return
  4005     0267                     __end_of_OSCILLATOR_Initialize:
  4006                           
  4007                           	psect	intentry
  4008     0004                     __pintentry:	
  4009 ;; *************** function _INTERRUPT_InterruptManager *****************
  4010 ;; Defined at:
  4011 ;;		line 52 in file "mcc_generated_files/interrupt_manager.c"
  4012 ;; Parameters:    Size  Location     Type
  4013 ;;		None
  4014 ;; Auto vars:     Size  Location     Type
  4015 ;;		None
  4016 ;; Return value:  Size  Location     Type
  4017 ;;                  1    wreg      void 
  4018 ;; Registers used:
  4019 ;;		wreg, fsr1l, fsr1h, status,2, status,0, pclath, cstack
  4020 ;; Tracked objects:
  4021 ;;		On entry : 0/0
  4022 ;;		On exit  : 0/0
  4023 ;;		Unchanged: 0/0
  4024 ;; Data sizes:     COMMON   BANK0   BANK1   BANK2   BANK3   BANK4   BANK5   BANK6   BANK7   BANK8   BANK9  BANK10  BANK1
      +1  BANK12
  4025 ;;      Params:         0       0       0       0       0       0       0       0       0       0       0       0       
      +0       0
  4026 ;;      Locals:         0       0       0       0       0       0       0       0       0       0       0       0       
      +0       0
  4027 ;;      Temps:          0       0       0       0       0       0       0       0       0       0       0       0       
      +0       0
  4028 ;;      Totals:         0       0       0       0       0       0       0       0       0       0       0       0       
      +0       0
  4029 ;;Total ram usage:        0 bytes
  4030 ;; Hardware stack levels used: 1
  4031 ;; Hardware stack levels required when called: 5
  4032 ;; This function calls:
  4033 ;;		_PIN_MANAGER_IOC
  4034 ;; This function is called by:
  4035 ;;		Interrupt level 1
  4036 ;; This function uses a non-reentrant model
  4037 ;;
  4038                           
  4039     0004                     _INTERRUPT_InterruptManager:
  4040                           
  4041                           ;incstack = 0
  4042     0004  147E               	bsf	int$flags,0	;set compiler interrupt flag (level 1)
  4043                           
  4044                           ; Regs used in _INTERRUPT_InterruptManager: [wreg+fsr1l+fsr1h+status,2+status,0+pclath+c
      +                          stack]
  4045     0005  3180               	pagesel	$
  4046     0006                     i1l2087:
  4047                           
  4048                           ;mcc_generated_files/interrupt_manager.c: 55:     if(INTCONbits.IOCIE == 1 && INTCONbits
      +                          .IOCIF == 1)
  4049     0006  1D8B               	btfss	11,3	;volatile
  4050     0007  2809               	goto	u48_21
  4051     0008  280A               	goto	u48_20
  4052     0009                     u48_21:
  4053     0009  2811               	goto	i1l452
  4054     000A                     u48_20:
  4055     000A                     i1l2089:
  4056     000A  1C0B               	btfss	11,0	;volatile
  4057     000B  280D               	goto	u49_21
  4058     000C  280E               	goto	u49_20
  4059     000D                     u49_21:
  4060     000D  2811               	goto	i1l452
  4061     000E                     u49_20:
  4062     000E                     i1l2091:
  4063                           
  4064                           ;mcc_generated_files/interrupt_manager.c: 56:     {;mcc_generated_files/interrupt_manage
      +                          r.c: 57:         PIN_MANAGER_IOC();
  4065     000E  3182  2267  3180   	fcall	_PIN_MANAGER_IOC
  4066     0011                     i1l452:	
  4067                           ;mcc_generated_files/interrupt_manager.c: 58:     }
  4068                           
  4069     0011  107E               	bcf	int$flags,0	;clear compiler interrupt flag (level 1)
  4070     0012  0009               	retfie
  4071     0013                     __end_of_INTERRUPT_InterruptManager:
  4072                           
  4073                           	psect	text11
  4074     0267                     __ptext11:	
  4075 ;; *************** function _PIN_MANAGER_IOC *****************
  4076 ;; Defined at:
  4077 ;;		line 135 in file "mcc_generated_files/pin_manager.c"
  4078 ;; Parameters:    Size  Location     Type
  4079 ;;		None
  4080 ;; Auto vars:     Size  Location     Type
  4081 ;;		None
  4082 ;; Return value:  Size  Location     Type
  4083 ;;                  1    wreg      void 
  4084 ;; Registers used:
  4085 ;;		wreg, fsr1l, fsr1h, status,2, status,0, pclath, cstack
  4086 ;; Tracked objects:
  4087 ;;		On entry : 0/0
  4088 ;;		On exit  : 0/0
  4089 ;;		Unchanged: 0/0
  4090 ;; Data sizes:     COMMON   BANK0   BANK1   BANK2   BANK3   BANK4   BANK5   BANK6   BANK7   BANK8   BANK9  BANK10  BANK1
      +1  BANK12
  4091 ;;      Params:         0       0       0       0       0       0       0       0       0       0       0       0       
      +0       0
  4092 ;;      Locals:         0       0       0       0       0       0       0       0       0       0       0       0       
      +0       0
  4093 ;;      Temps:          0       0       0       0       0       0       0       0       0       0       0       0       
      +0       0
  4094 ;;      Totals:         0       0       0       0       0       0       0       0       0       0       0       0       
      +0       0
  4095 ;;Total ram usage:        0 bytes
  4096 ;; Hardware stack levels used: 1
  4097 ;; Hardware stack levels required when called: 4
  4098 ;; This function calls:
  4099 ;;		_IOCCF4_ISR
  4100 ;; This function is called by:
  4101 ;;		_INTERRUPT_InterruptManager
  4102 ;; This function uses a non-reentrant model
  4103 ;;
  4104                           
  4105     0267                     _PIN_MANAGER_IOC:	
  4106                           ;psect for function _PIN_MANAGER_IOC
  4107                           
  4108     0267                     i1l2081:	
  4109                           ;incstack = 0
  4110                           ; Regs used in _PIN_MANAGER_IOC: [wreg+fsr1l+fsr1h+status,2+status,0+pclath+cstack]
  4111                           
  4112                           
  4113                           ;mcc_generated_files/pin_manager.c: 138:     if(IOCCFbits.IOCCF4 == 1)
  4114     0267  0027               	movlb	7	; select bank7
  4115     0268  1E19               	btfss	25,4	;volatile
  4116     0269  2A6B               	goto	u47_21
  4117     026A  2A6C               	goto	u47_20
  4118     026B                     u47_21:
  4119     026B  2A6F               	goto	i1l75
  4120     026C                     u47_20:
  4121     026C                     i1l2083:
  4122                           
  4123                           ;mcc_generated_files/pin_manager.c: 139:     {;mcc_generated_files/pin_manager.c: 140:  
      +                                 IOCCF4_ISR();
  4124     026C  3182  224C  3182   	fcall	_IOCCF4_ISR
  4125     026F                     i1l75:
  4126     026F  0008               	return
  4127     0270                     __end_of_PIN_MANAGER_IOC:
  4128                           
  4129                           	psect	text12
  4130     024C                     __ptext12:	
  4131 ;; *************** function _IOCCF4_ISR *****************
  4132 ;; Defined at:
  4133 ;;		line 147 in file "mcc_generated_files/pin_manager.c"
  4134 ;; Parameters:    Size  Location     Type
  4135 ;;		None
  4136 ;; Auto vars:     Size  Location     Type
  4137 ;;		None
  4138 ;; Return value:  Size  Location     Type
  4139 ;;                  1    wreg      void 
  4140 ;; Registers used:
  4141 ;;		wreg, fsr1l, fsr1h, status,2, status,0, pclath, cstack
  4142 ;; Tracked objects:
  4143 ;;		On entry : 0/0
  4144 ;;		On exit  : 0/0
  4145 ;;		Unchanged: 0/0
  4146 ;; Data sizes:     COMMON   BANK0   BANK1   BANK2   BANK3   BANK4   BANK5   BANK6   BANK7   BANK8   BANK9  BANK10  BANK1
      +1  BANK12
  4147 ;;      Params:         0       0       0       0       0       0       0       0       0       0       0       0       
      +0       0
  4148 ;;      Locals:         0       0       0       0       0       0       0       0       0       0       0       0       
      +0       0
  4149 ;;      Temps:          0       0       0       0       0       0       0       0       0       0       0       0       
      +0       0
  4150 ;;      Totals:         0       0       0       0       0       0       0       0       0       0       0       0       
      +0       0
  4151 ;;Total ram usage:        0 bytes
  4152 ;; Hardware stack levels used: 1
  4153 ;; Hardware stack levels required when called: 3
  4154 ;; This function calls:
  4155 ;;		NULL
  4156 ;;		_IOCCF4_DefaultInterruptHandler
  4157 ;;		_int_strb
  4158 ;; This function is called by:
  4159 ;;		_PIN_MANAGER_IOC
  4160 ;; This function uses a non-reentrant model
  4161 ;;
  4162                           
  4163     024C                     _IOCCF4_ISR:	
  4164                           ;psect for function _IOCCF4_ISR
  4165                           
  4166     024C                     i1l1963:	
  4167                           ;incstack = 0
  4168                           ; Regs used in _IOCCF4_ISR: [wreg+fsr1l+fsr1h+status,2+status,0+pclath+cstack]
  4169                           
  4170                           
  4171                           ;mcc_generated_files/pin_manager.c: 152:     if(IOCCF4_InterruptHandler)
  4172     024C  0020               	movlb	0	; select bank0
  4173     024D  0837               	movf	_IOCCF4_InterruptHandler,w
  4174     024E  0438               	iorwf	_IOCCF4_InterruptHandler+1,w
  4175     024F  1903               	btfsc	3,2
  4176     0250  2A52               	goto	u45_21
  4177     0251  2A53               	goto	u45_20
  4178     0252                     u45_21:
  4179     0252  2A58               	goto	i1l1967
  4180     0253                     u45_20:
  4181     0253                     i1l1965:
  4182                           
  4183                           ;mcc_generated_files/pin_manager.c: 153:     {;mcc_generated_files/pin_manager.c: 154:  
      +                                 IOCCF4_InterruptHandler();
  4184     0253  0838               	movf	_IOCCF4_InterruptHandler+1,w
  4185     0254  008A               	movwf	10
  4186     0255  0837               	movf	_IOCCF4_InterruptHandler,w
  4187     0256  000A               	callw
  4188     0257  3182               	pagesel	$
  4189     0258                     i1l1967:
  4190                           
  4191                           ;mcc_generated_files/pin_manager.c: 156:     IOCCFbits.IOCCF4 = 0;
  4192     0258  0027               	movlb	7	; select bank7
  4193     0259  1219               	bcf	25,4	;volatile
  4194     025A                     i1l79:
  4195     025A  0008               	return
  4196     025B                     __end_of_IOCCF4_ISR:
  4197                           
  4198                           	psect	text13
  4199     02B8                     __ptext13:	
  4200 ;; *************** function _IOCCF4_DefaultInterruptHandler *****************
  4201 ;; Defined at:
  4202 ;;		line 169 in file "mcc_generated_files/pin_manager.c"
  4203 ;; Parameters:    Size  Location     Type
  4204 ;;		None
  4205 ;; Auto vars:     Size  Location     Type
  4206 ;;		None
  4207 ;; Return value:  Size  Location     Type
  4208 ;;                  1    wreg      void 
  4209 ;; Registers used:
  4210 ;;		None
  4211 ;; Tracked objects:
  4212 ;;		On entry : 0/0
  4213 ;;		On exit  : 0/0
  4214 ;;		Unchanged: 0/0
  4215 ;; Data sizes:     COMMON   BANK0   BANK1   BANK2   BANK3   BANK4   BANK5   BANK6   BANK7   BANK8   BANK9  BANK10  BANK1
      +1  BANK12
  4216 ;;      Params:         0       0       0       0       0       0       0       0       0       0       0       0       
      +0       0
  4217 ;;      Locals:         0       0       0       0       0       0       0       0       0       0       0       0       
      +0       0
  4218 ;;      Temps:          0       0       0       0       0       0       0       0       0       0       0       0       
      +0       0
  4219 ;;      Totals:         0       0       0       0       0       0       0       0       0       0       0       0       
      +0       0
  4220 ;;Total ram usage:        0 bytes
  4221 ;; Hardware stack levels used: 1
  4222 ;; This function calls:
  4223 ;;		Nothing
  4224 ;; This function is called by:
  4225 ;;		_PIN_MANAGER_Initialize
  4226 ;;		_IOCCF4_ISR
  4227 ;; This function uses a non-reentrant model
  4228 ;;
  4229                           
  4230     02B8                     _IOCCF4_DefaultInterruptHandler:	
  4231                           ;psect for function _IOCCF4_DefaultInterruptHandler
  4232                           
  4233     02B8                     i1l85:	
  4234                           ;incstack = 0
  4235                           ; Regs used in _IOCCF4_DefaultInterruptHandler: []
  4236                           
  4237     02B8  0008               	return
  4238     02B9                     __end_of_IOCCF4_DefaultInterruptHandler:
  4239                           
  4240                           	psect	text14
  4241     019F                     __ptext14:	
  4242 ;; *************** function _int_strb *****************
  4243 ;; Defined at:
  4244 ;;		line 66 in file "main.c"
  4245 ;; Parameters:    Size  Location     Type
  4246 ;;		None
  4247 ;; Auto vars:     Size  Location     Type
  4248 ;;  idx             1   12[COMMON] unsigned char 
  4249 ;;  b               1   11[COMMON] unsigned char 
  4250 ;;  d               1   10[COMMON] unsigned char 
  4251 ;; Return value:  Size  Location     Type
  4252 ;;                  1    wreg      void 
  4253 ;; Registers used:
  4254 ;;		wreg, fsr1l, fsr1h, status,2, status,0, pclath, cstack
  4255 ;; Tracked objects:
  4256 ;;		On entry : 0/0
  4257 ;;		On exit  : 0/0
  4258 ;;		Unchanged: 0/0
  4259 ;; Data sizes:     COMMON   BANK0   BANK1   BANK2   BANK3   BANK4   BANK5   BANK6   BANK7   BANK8   BANK9  BANK10  BANK1
      +1  BANK12
  4260 ;;      Params:         0       0       0       0       0       0       0       0       0       0       0       0       
      +0       0
  4261 ;;      Locals:         3       0       0       0       0       0       0       0       0       0       0       0       
      +0       0
  4262 ;;      Temps:          1       0       0       0       0       0       0       0       0       0       0       0       
      +0       0
  4263 ;;      Totals:         4       0       0       0       0       0       0       0       0       0       0       0       
      +0       0
  4264 ;;Total ram usage:        4 bytes
  4265 ;; Hardware stack levels used: 1
  4266 ;; Hardware stack levels required when called: 2
  4267 ;; This function calls:
  4268 ;;		_set_pwm
  4269 ;; This function is called by:
  4270 ;;		_main
  4271 ;;		_IOCCF4_ISR
  4272 ;; This function uses a non-reentrant model
  4273 ;;
  4274                           
  4275     019F                     _int_strb:	
  4276                           ;psect for function _int_strb
  4277                           
  4278     019F                     i1l1895:	
  4279                           ;incstack = 0
  4280                           ; Regs used in _int_strb: [wreg+fsr1l+fsr1h+status,2+status,0+pclath+cstack]
  4281                           
  4282                           
  4283                           ;main.c: 67:     uint8_t b, d;;main.c: 70:     for (uint8_t idx=0; idx<8; idx++) {
  4284     019F  01FC               	clrf	int_strb@idx
  4285     01A0                     i1l1901:
  4286                           
  4287                           ;main.c: 71:         d = 0;
  4288     01A0  01FA               	clrf	int_strb@d
  4289                           
  4290                           ;main.c: 72:         for (b=0; b<8; b++) {
  4291     01A1  01FB               	clrf	int_strb@b
  4292     01A2                     i1l515:
  4293     01A2  0020               	movlb	0	; select bank0
  4294     01A3  1D8E               	btfss	14,3	;volatile
  4295     01A4  29A6               	goto	u41_21
  4296     01A5  29A7               	goto	u41_20
  4297     01A6                     u41_21:
  4298     01A6  29A2               	goto	i1l515
  4299     01A7                     u41_20:
  4300     01A7                     i1l1907:
  4301                           
  4302                           ;main.c: 74:             d <<= 1;
  4303     01A7  1003               	clrc
  4304     01A8  0DFA               	rlf	int_strb@d,f
  4305     01A9                     i1l518:	
  4306                           ;main.c: 75:             while (PORTCbits.RC3 == 1) {}
  4307                           
  4308     01A9  198E               	btfsc	14,3	;volatile
  4309     01AA  29AC               	goto	u42_21
  4310     01AB  29AD               	goto	u42_20
  4311     01AC                     u42_21:
  4312     01AC  29A9               	goto	i1l518
  4313     01AD                     u42_20:
  4314     01AD                     i1l1909:
  4315                           
  4316                           ;main.c: 76:             d |= PORTCbits.RC6;
  4317     01AD  0E0E               	swapf	14,w	;volatile
  4318     01AE  0C89               	rrf	9,f
  4319     01AF  0C89               	rrf	9,f
  4320     01B0  3901               	andlw	1
  4321     01B1  00F9               	movwf	??_int_strb
  4322     01B2  0879               	movf	??_int_strb,w
  4323     01B3  04FA               	iorwf	int_strb@d,f
  4324                           
  4325                           ;main.c: 77:         }
  4326     01B4  3001               	movlw	1
  4327     01B5  00F9               	movwf	??_int_strb
  4328     01B6  0879               	movf	??_int_strb,w
  4329     01B7  07FB               	addwf	int_strb@b,f
  4330     01B8                     i1l1911:
  4331     01B8  3008               	movlw	8
  4332     01B9  027B               	subwf	int_strb@b,w
  4333     01BA  1C03               	skipc
  4334     01BB  29BD               	goto	u43_21
  4335     01BC  29BE               	goto	u43_20
  4336     01BD                     u43_21:
  4337     01BD  29A2               	goto	i1l515
  4338     01BE                     u43_20:
  4339     01BE                     i1l1913:
  4340                           
  4341                           ;main.c: 78:         data.buf[idx] = d;
  4342     01BE  087C               	movf	int_strb@idx,w
  4343     01BF  3E20               	addlw	(low (_data| 0))& (0+255)
  4344     01C0  0086               	movwf	6
  4345     01C1  0187               	clrf	7
  4346     01C2  087A               	movf	int_strb@d,w
  4347     01C3  0081               	movwf	1
  4348     01C4                     i1l1915:
  4349                           
  4350                           ;main.c: 79:     }
  4351     01C4  3001               	movlw	1
  4352     01C5  00F9               	movwf	??_int_strb
  4353     01C6  0879               	movf	??_int_strb,w
  4354     01C7  07FC               	addwf	int_strb@idx,f
  4355     01C8                     i1l1917:
  4356     01C8  3008               	movlw	8
  4357     01C9  027C               	subwf	int_strb@idx,w
  4358     01CA  1C03               	skipc
  4359     01CB  29CD               	goto	u44_21
  4360     01CC  29CE               	goto	u44_20
  4361     01CD                     u44_21:
  4362     01CD  29A0               	goto	i1l1901
  4363     01CE                     u44_20:
  4364     01CE                     i1l1919:
  4365                           
  4366                           ;main.c: 80:     set_pwm();
  4367     01CE  3180  2030  3181   	fcall	_set_pwm
  4368     01D1                     i1l521:
  4369     01D1  0008               	return
  4370     01D2                     __end_of_int_strb:
  4371                           
  4372                           	psect	text15
  4373     0030                     __ptext15:	
  4374 ;; *************** function _set_pwm *****************
  4375 ;; Defined at:
  4376 ;;		line 26 in file "main.c"
  4377 ;; Parameters:    Size  Location     Type
  4378 ;;		None
  4379 ;; Auto vars:     Size  Location     Type
  4380 ;;  d               2    7[COMMON] unsigned short 
  4381 ;;  d0              2    5[COMMON] unsigned short 
  4382 ;;  i               1    4[COMMON] unsigned char 
  4383 ;; Return value:  Size  Location     Type
  4384 ;;                  1    wreg      void 
  4385 ;; Registers used:
  4386 ;;		wreg, fsr1l, fsr1h, status,2, status,0, pclath, cstack
  4387 ;; Tracked objects:
  4388 ;;		On entry : 0/0
  4389 ;;		On exit  : 0/0
  4390 ;;		Unchanged: 0/0
  4391 ;; Data sizes:     COMMON   BANK0   BANK1   BANK2   BANK3   BANK4   BANK5   BANK6   BANK7   BANK8   BANK9  BANK10  BANK1
      +1  BANK12
  4392 ;;      Params:         0       0       0       0       0       0       0       0       0       0       0       0       
      +0       0
  4393 ;;      Locals:         5       0       0       0       0       0       0       0       0       0       0       0       
      +0       0
  4394 ;;      Temps:          2       0       0       0       0       0       0       0       0       0       0       0       
      +0       0
  4395 ;;      Totals:         7       0       0       0       0       0       0       0       0       0       0       0       
      +0       0
  4396 ;;Total ram usage:        7 bytes
  4397 ;; Hardware stack levels used: 1
  4398 ;; Hardware stack levels required when called: 1
  4399 ;; This function calls:
  4400 ;;		_PWM1_DutyCycleSet
  4401 ;;		_PWM1_LoadBufferSet
  4402 ;;		_PWM1_Start
  4403 ;;		_PWM2_DutyCycleSet
  4404 ;;		_PWM2_LoadBufferSet
  4405 ;;		_PWM2_Start
  4406 ;;		_PWM3_DutyCycleSet
  4407 ;;		_PWM3_LoadBufferSet
  4408 ;;		_PWM3_Start
  4409 ;;		_PWM4_DutyCycleSet
  4410 ;;		_PWM4_LoadBufferSet
  4411 ;;		_PWM4_Start
  4412 ;; This function is called by:
  4413 ;;		_int_strb
  4414 ;; This function uses a non-reentrant model
  4415 ;;
  4416                           
  4417     0030                     _set_pwm:	
  4418                           ;psect for function _set_pwm
  4419                           
  4420     0030                     i1l1837:	
  4421                           ;incstack = 0
  4422                           ; Regs used in _set_pwm: [wreg+fsr1l+fsr1h+status,2+status,0+pclath+cstack]
  4423                           
  4424                           
  4425                           ;main.c: 27:     uint8_t i;;main.c: 28:     uint16_t d;;main.c: 29:     uint16_t d0;;mai
      +                          n.c: 31:     for (i=0; i<4; i++) {
  4426     0030  01F4               	clrf	set_pwm@i
  4427     0031                     i1l1843:
  4428                           
  4429                           ;main.c: 32:         d = data.pwm[i];
  4430     0031  3574               	lslf	set_pwm@i,w
  4431     0032  3E20               	addlw	(low (_data| 0))& (0+255)
  4432     0033  0086               	movwf	6
  4433     0034  0187               	clrf	7
  4434     0035  3F40               	moviw [0]fsr1
  4435     0036  00F7               	movwf	set_pwm@d
  4436     0037  3F41               	moviw [1]fsr1
  4437     0038  00F8               	movwf	set_pwm@d+1
  4438     0039                     i1l1845:
  4439                           
  4440                           ;main.c: 33:         if (d < 2000) return;
  4441     0039  3007               	movlw	7
  4442     003A  0278               	subwf	set_pwm@d+1,w
  4443     003B  30D0               	movlw	208
  4444     003C  1903               	skipnz
  4445     003D  0277               	subwf	set_pwm@d,w
  4446     003E  1803               	skipnc
  4447     003F  2841               	goto	u33_21
  4448     0040  2842               	goto	u33_20
  4449     0041                     u33_21:
  4450     0041  2843               	goto	i1l1849
  4451     0042                     u33_20:
  4452     0042  28E3               	goto	i1l502
  4453     0043                     i1l1849:
  4454                           
  4455                           ;main.c: 34:         if (d > 22000) return;
  4456     0043  3055               	movlw	85
  4457     0044  0278               	subwf	set_pwm@d+1,w
  4458     0045  30F1               	movlw	241
  4459     0046  1903               	skipnz
  4460     0047  0277               	subwf	set_pwm@d,w
  4461     0048  1C03               	skipc
  4462     0049  284B               	goto	u34_21
  4463     004A  284C               	goto	u34_20
  4464     004B                     u34_21:
  4465     004B  284D               	goto	i1l1853
  4466     004C                     u34_20:
  4467     004C  28E3               	goto	i1l502
  4468     004D                     i1l1853:
  4469                           
  4470                           ;main.c: 35:         d0 = pwm0[i];
  4471     004D  3574               	lslf	set_pwm@i,w
  4472     004E  3E2B               	addlw	(low (_pwm0| 0))& (0+255)
  4473     004F  0086               	movwf	6
  4474     0050  0187               	clrf	7
  4475     0051  3F40               	moviw [0]fsr1
  4476     0052  00F5               	movwf	set_pwm@d0
  4477     0053  3F41               	moviw [1]fsr1
  4478     0054  00F6               	movwf	set_pwm@d0+1
  4479     0055                     i1l1855:
  4480                           
  4481                           ;main.c: 36:         if (d0) {
  4482     0055  0875               	movf	set_pwm@d0,w
  4483     0056  0476               	iorwf	set_pwm@d0+1,w
  4484     0057  1903               	btfsc	3,2
  4485     0058  285A               	goto	u35_21
  4486     0059  285B               	goto	u35_20
  4487     005A                     u35_21:
  4488     005A  2899               	goto	i1l1869
  4489     005B                     u35_20:
  4490     005B                     i1l1857:
  4491                           
  4492                           ;main.c: 37:             if (d0 > d) {
  4493     005B  0876               	movf	set_pwm@d0+1,w
  4494     005C  0278               	subwf	set_pwm@d+1,w
  4495     005D  1D03               	skipz
  4496     005E  2861               	goto	u36_25
  4497     005F  0875               	movf	set_pwm@d0,w
  4498     0060  0277               	subwf	set_pwm@d,w
  4499     0061                     u36_25:
  4500     0061  1803               	skipnc
  4501     0062  2864               	goto	u36_21
  4502     0063  2865               	goto	u36_20
  4503     0064                     u36_21:
  4504     0064  287A               	goto	i1l1863
  4505     0065                     u36_20:
  4506     0065                     i1l1859:
  4507                           
  4508                           ;main.c: 38:                 if ((d0 - d) > 200) {
  4509     0065  0877               	movf	set_pwm@d,w
  4510     0066  0275               	subwf	set_pwm@d0,w
  4511     0067  00F2               	movwf	??_set_pwm
  4512     0068  0878               	movf	set_pwm@d+1,w
  4513     0069  3B76               	subwfb	set_pwm@d0+1,w
  4514     006A  00F3               	movwf	??_set_pwm+1
  4515     006B  3000               	movlw	0
  4516     006C  0273               	subwf	??_set_pwm+1,w
  4517     006D  30C9               	movlw	201
  4518     006E  1903               	skipnz
  4519     006F  0272               	subwf	??_set_pwm,w
  4520     0070  1C03               	skipc
  4521     0071  2873               	goto	u37_21
  4522     0072  2874               	goto	u37_20
  4523     0073                     u37_21:
  4524     0073  287A               	goto	i1l1863
  4525     0074                     u37_20:
  4526     0074                     i1l1861:
  4527                           
  4528                           ;main.c: 39:                     d = d0 - 200;
  4529     0074  0875               	movf	set_pwm@d0,w
  4530     0075  3E38               	addlw	56
  4531     0076  00F7               	movwf	set_pwm@d
  4532     0077  30FF               	movlw	255
  4533     0078  3D76               	addwfc	set_pwm@d0+1,w
  4534     0079  00F8               	movwf	set_pwm@d+1
  4535     007A                     i1l1863:
  4536                           
  4537                           ;main.c: 42:             if (d0 < d) {
  4538     007A  0878               	movf	set_pwm@d+1,w
  4539     007B  0276               	subwf	set_pwm@d0+1,w
  4540     007C  1D03               	skipz
  4541     007D  2880               	goto	u38_25
  4542     007E  0877               	movf	set_pwm@d,w
  4543     007F  0275               	subwf	set_pwm@d0,w
  4544     0080                     u38_25:
  4545     0080  1803               	skipnc
  4546     0081  2883               	goto	u38_21
  4547     0082  2884               	goto	u38_20
  4548     0083                     u38_21:
  4549     0083  2899               	goto	i1l1869
  4550     0084                     u38_20:
  4551     0084                     i1l1865:
  4552                           
  4553                           ;main.c: 43:                 if ((d - d0) > 200) {
  4554     0084  0875               	movf	set_pwm@d0,w
  4555     0085  0277               	subwf	set_pwm@d,w
  4556     0086  00F2               	movwf	??_set_pwm
  4557     0087  0876               	movf	set_pwm@d0+1,w
  4558     0088  3B78               	subwfb	set_pwm@d+1,w
  4559     0089  00F3               	movwf	??_set_pwm+1
  4560     008A  3000               	movlw	0
  4561     008B  0273               	subwf	??_set_pwm+1,w
  4562     008C  30C9               	movlw	201
  4563     008D  1903               	skipnz
  4564     008E  0272               	subwf	??_set_pwm,w
  4565     008F  1C03               	skipc
  4566     0090  2892               	goto	u39_21
  4567     0091  2893               	goto	u39_20
  4568     0092                     u39_21:
  4569     0092  2899               	goto	i1l1869
  4570     0093                     u39_20:
  4571     0093                     i1l1867:
  4572                           
  4573                           ;main.c: 44:                     d = d0 + 200;
  4574     0093  0875               	movf	set_pwm@d0,w
  4575     0094  3EC8               	addlw	200
  4576     0095  00F7               	movwf	set_pwm@d
  4577     0096  3000               	movlw	0
  4578     0097  3D76               	addwfc	set_pwm@d0+1,w
  4579     0098  00F8               	movwf	set_pwm@d+1
  4580     0099                     i1l1869:
  4581                           
  4582                           ;main.c: 48:         pwm0[i] = d;
  4583     0099  3574               	lslf	set_pwm@i,w
  4584     009A  3E2B               	addlw	(low (_pwm0| 0))& (0+255)
  4585     009B  0086               	movwf	6
  4586     009C  0187               	clrf	7
  4587     009D  0877               	movf	set_pwm@d,w
  4588     009E  3FC0               	movwi [0]fsr1
  4589     009F  0878               	movf	set_pwm@d+1,w
  4590     00A0  3FC1               	movwi [1]fsr1
  4591     00A1                     i1l1871:
  4592                           
  4593                           ;main.c: 49:     }
  4594     00A1  3001               	movlw	1
  4595     00A2  00F2               	movwf	??_set_pwm
  4596     00A3  0872               	movf	??_set_pwm,w
  4597     00A4  07F4               	addwf	set_pwm@i,f
  4598     00A5                     i1l1873:
  4599     00A5  3004               	movlw	4
  4600     00A6  0274               	subwf	set_pwm@i,w
  4601     00A7  1C03               	skipc
  4602     00A8  28AA               	goto	u40_21
  4603     00A9  28AB               	goto	u40_20
  4604     00AA                     u40_21:
  4605     00AA  2831               	goto	i1l1843
  4606     00AB                     u40_20:
  4607     00AB                     i1l1875:
  4608                           
  4609                           ;main.c: 51:     PWM1_DutyCycleSet(pwm0[0]);
  4610     00AB  0020               	movlb	0	; select bank0
  4611     00AC  082C               	movf	_pwm0+1,w
  4612     00AD  00F1               	movwf	PWM1_DutyCycleSet@dutyCycleCount+1
  4613     00AE  082B               	movf	_pwm0,w
  4614     00AF  00F0               	movwf	PWM1_DutyCycleSet@dutyCycleCount
  4615     00B0  3182  2296  3180   	fcall	_PWM1_DutyCycleSet
  4616                           
  4617                           ;main.c: 52:     PWM2_DutyCycleSet(pwm0[1]);
  4618     00B3  0020               	movlb	0	; select bank0
  4619     00B4  082E               	movf	_pwm0+3,w
  4620     00B5  00F1               	movwf	PWM2_DutyCycleSet@dutyCycleCount+1
  4621     00B6  082D               	movf	_pwm0+2,w
  4622     00B7  00F0               	movwf	PWM2_DutyCycleSet@dutyCycleCount
  4623     00B8  3182  2290  3180   	fcall	_PWM2_DutyCycleSet
  4624                           
  4625                           ;main.c: 53:     PWM3_DutyCycleSet(pwm0[2]);
  4626     00BB  0020               	movlb	0	; select bank0
  4627     00BC  0830               	movf	_pwm0+5,w
  4628     00BD  00F1               	movwf	PWM3_DutyCycleSet@dutyCycleCount+1
  4629     00BE  082F               	movf	_pwm0+4,w
  4630     00BF  00F0               	movwf	PWM3_DutyCycleSet@dutyCycleCount
  4631     00C0  3182  228A  3180   	fcall	_PWM3_DutyCycleSet
  4632                           
  4633                           ;main.c: 54:     PWM4_DutyCycleSet(pwm0[3]);
  4634     00C3  0020               	movlb	0	; select bank0
  4635     00C4  0832               	movf	_pwm0+7,w
  4636     00C5  00F1               	movwf	PWM4_DutyCycleSet@dutyCycleCount+1
  4637     00C6  0831               	movf	_pwm0+6,w
  4638     00C7  00F0               	movwf	PWM4_DutyCycleSet@dutyCycleCount
  4639     00C8  3182  2284  3180   	fcall	_PWM4_DutyCycleSet
  4640     00CB                     i1l1877:
  4641                           
  4642                           ;main.c: 55:     PWM1_LoadBufferSet();
  4643     00CB  3182  22B5  3180   	fcall	_PWM1_LoadBufferSet
  4644     00CE                     i1l1879:
  4645                           
  4646                           ;main.c: 56:     PWM2_LoadBufferSet();
  4647     00CE  3182  22AF  3180   	fcall	_PWM2_LoadBufferSet
  4648     00D1                     i1l1881:
  4649                           
  4650                           ;main.c: 57:     PWM3_LoadBufferSet();
  4651     00D1  3182  22A9  3180   	fcall	_PWM3_LoadBufferSet
  4652     00D4                     i1l1883:
  4653                           
  4654                           ;main.c: 58:     PWM4_LoadBufferSet();
  4655     00D4  3182  22A3  3180   	fcall	_PWM4_LoadBufferSet
  4656     00D7                     i1l1885:
  4657                           
  4658                           ;main.c: 59:     PWM1_Start();
  4659     00D7  3182  22B2  3180   	fcall	_PWM1_Start
  4660     00DA                     i1l1887:
  4661                           
  4662                           ;main.c: 60:     PWM2_Start();
  4663     00DA  3182  22AC  3180   	fcall	_PWM2_Start
  4664     00DD                     i1l1889:
  4665                           
  4666                           ;main.c: 61:     PWM3_Start();
  4667     00DD  3182  22A6  3180   	fcall	_PWM3_Start
  4668     00E0                     i1l1891:
  4669                           
  4670                           ;main.c: 62:     PWM4_Start();
  4671     00E0  3182  22A0  3180   	fcall	_PWM4_Start
  4672     00E3                     i1l502:
  4673     00E3  0008               	return
  4674     00E4                     __end_of_set_pwm:
  4675                           
  4676                           	psect	text16
  4677     02A0                     __ptext16:	
  4678 ;; *************** function _PWM4_Start *****************
  4679 ;; Defined at:
  4680 ;;		line 113 in file "mcc_generated_files/pwm4.c"
  4681 ;; Parameters:    Size  Location     Type
  4682 ;;		None
  4683 ;; Auto vars:     Size  Location     Type
  4684 ;;		None
  4685 ;; Return value:  Size  Location     Type
  4686 ;;                  1    wreg      void 
  4687 ;; Registers used:
  4688 ;;		None
  4689 ;; Tracked objects:
  4690 ;;		On entry : 0/0
  4691 ;;		On exit  : 0/0
  4692 ;;		Unchanged: 0/0
  4693 ;; Data sizes:     COMMON   BANK0   BANK1   BANK2   BANK3   BANK4   BANK5   BANK6   BANK7   BANK8   BANK9  BANK10  BANK1
      +1  BANK12
  4694 ;;      Params:         0       0       0       0       0       0       0       0       0       0       0       0       
      +0       0
  4695 ;;      Locals:         0       0       0       0       0       0       0       0       0       0       0       0       
      +0       0
  4696 ;;      Temps:          0       0       0       0       0       0       0       0       0       0       0       0       
      +0       0
  4697 ;;      Totals:         0       0       0       0       0       0       0       0       0       0       0       0       
      +0       0
  4698 ;;Total ram usage:        0 bytes
  4699 ;; Hardware stack levels used: 1
  4700 ;; This function calls:
  4701 ;;		Nothing
  4702 ;; This function is called by:
  4703 ;;		_set_pwm
  4704 ;; This function uses a non-reentrant model
  4705 ;;
  4706                           
  4707     02A0                     _PWM4_Start:	
  4708                           ;psect for function _PWM4_Start
  4709                           
  4710     02A0                     i1l1829:	
  4711                           ;incstack = 0
  4712                           ; Regs used in _PWM4_Start: []
  4713                           
  4714                           
  4715                           ;mcc_generated_files/pwm4.c: 115:     PWM4CONbits.EN = 1;
  4716     02A0  003B               	movlb	27	; select bank27
  4717     02A1  17CB               	bsf	75,7	;volatile
  4718     02A2                     i1l405:
  4719     02A2  0008               	return
  4720     02A3                     __end_of_PWM4_Start:
  4721                           
  4722                           	psect	text17
  4723     02A3                     __ptext17:	
  4724 ;; *************** function _PWM4_LoadBufferSet *****************
  4725 ;; Defined at:
  4726 ;;		line 128 in file "mcc_generated_files/pwm4.c"
  4727 ;; Parameters:    Size  Location     Type
  4728 ;;		None
  4729 ;; Auto vars:     Size  Location     Type
  4730 ;;		None
  4731 ;; Return value:  Size  Location     Type
  4732 ;;                  1    wreg      void 
  4733 ;; Registers used:
  4734 ;;		None
  4735 ;; Tracked objects:
  4736 ;;		On entry : 0/0
  4737 ;;		On exit  : 0/0
  4738 ;;		Unchanged: 0/0
  4739 ;; Data sizes:     COMMON   BANK0   BANK1   BANK2   BANK3   BANK4   BANK5   BANK6   BANK7   BANK8   BANK9  BANK10  BANK1
      +1  BANK12
  4740 ;;      Params:         0       0       0       0       0       0       0       0       0       0       0       0       
      +0       0
  4741 ;;      Locals:         0       0       0       0       0       0       0       0       0       0       0       0       
      +0       0
  4742 ;;      Temps:          0       0       0       0       0       0       0       0       0       0       0       0       
      +0       0
  4743 ;;      Totals:         0       0       0       0       0       0       0       0       0       0       0       0       
      +0       0
  4744 ;;Total ram usage:        0 bytes
  4745 ;; Hardware stack levels used: 1
  4746 ;; This function calls:
  4747 ;;		Nothing
  4748 ;; This function is called by:
  4749 ;;		_set_pwm
  4750 ;; This function uses a non-reentrant model
  4751 ;;
  4752                           
  4753     02A3                     _PWM4_LoadBufferSet:	
  4754                           ;psect for function _PWM4_LoadBufferSet
  4755                           
  4756     02A3                     i1l1831:	
  4757                           ;incstack = 0
  4758                           ; Regs used in _PWM4_LoadBufferSet: []
  4759                           
  4760                           
  4761                           ;mcc_generated_files/pwm4.c: 130:     PWM4LDCONbits.LDA = 1;
  4762     02A3  003B               	movlb	27	; select bank27
  4763     02A4  17CF               	bsf	79,7	;volatile
  4764     02A5                     i1l414:
  4765     02A5  0008               	return
  4766     02A6                     __end_of_PWM4_LoadBufferSet:
  4767                           
  4768                           	psect	text18
  4769     0284                     __ptext18:	
  4770 ;; *************** function _PWM4_DutyCycleSet *****************
  4771 ;; Defined at:
  4772 ;;		line 139 in file "mcc_generated_files/pwm4.c"
  4773 ;; Parameters:    Size  Location     Type
  4774 ;;  dutyCycleCou    2    0[COMMON] unsigned short 
  4775 ;; Auto vars:     Size  Location     Type
  4776 ;;		None
  4777 ;; Return value:  Size  Location     Type
  4778 ;;                  1    wreg      void 
  4779 ;; Registers used:
  4780 ;;		wreg, status,2
  4781 ;; Tracked objects:
  4782 ;;		On entry : 0/0
  4783 ;;		On exit  : 0/0
  4784 ;;		Unchanged: 0/0
  4785 ;; Data sizes:     COMMON   BANK0   BANK1   BANK2   BANK3   BANK4   BANK5   BANK6   BANK7   BANK8   BANK9  BANK10  BANK1
      +1  BANK12
  4786 ;;      Params:         2       0       0       0       0       0       0       0       0       0       0       0       
      +0       0
  4787 ;;      Locals:         0       0       0       0       0       0       0       0       0       0       0       0       
      +0       0
  4788 ;;      Temps:          0       0       0       0       0       0       0       0       0       0       0       0       
      +0       0
  4789 ;;      Totals:         2       0       0       0       0       0       0       0       0       0       0       0       
      +0       0
  4790 ;;Total ram usage:        2 bytes
  4791 ;; Hardware stack levels used: 1
  4792 ;; This function calls:
  4793 ;;		Nothing
  4794 ;; This function is called by:
  4795 ;;		_set_pwm
  4796 ;; This function uses a non-reentrant model
  4797 ;;
  4798                           
  4799     0284                     _PWM4_DutyCycleSet:	
  4800                           ;psect for function _PWM4_DutyCycleSet
  4801                           
  4802     0284                     i1l1833:	
  4803                           ;incstack = 0
  4804                           ; Regs used in _PWM4_DutyCycleSet: [wreg+status,2]
  4805                           
  4806                           
  4807                           ;mcc_generated_files/pwm4.c: 139: void PWM4_DutyCycleSet(uint16_t dutyCycleCount);mcc_ge
      +                          nerated_files/pwm4.c: 140: {;mcc_generated_files/pwm4.c: 141:     PWM4DCH = (dutyCycleCo
      +                          unt>>8);
  4808     0284  0871               	movf	PWM4_DutyCycleSet@dutyCycleCount+1,w
  4809     0285  003B               	movlb	27	; select bank27
  4810     0286  00C4               	movwf	68	;volatile
  4811     0287                     i1l1835:
  4812                           
  4813                           ;mcc_generated_files/pwm4.c: 142:     PWM4DCL = (dutyCycleCount);
  4814     0287  0870               	movf	PWM4_DutyCycleSet@dutyCycleCount,w
  4815     0288  00C3               	movwf	67	;volatile
  4816     0289                     i1l420:
  4817     0289  0008               	return
  4818     028A                     __end_of_PWM4_DutyCycleSet:
  4819                           
  4820                           	psect	text19
  4821     02A6                     __ptext19:	
  4822 ;; *************** function _PWM3_Start *****************
  4823 ;; Defined at:
  4824 ;;		line 113 in file "mcc_generated_files/pwm3.c"
  4825 ;; Parameters:    Size  Location     Type
  4826 ;;		None
  4827 ;; Auto vars:     Size  Location     Type
  4828 ;;		None
  4829 ;; Return value:  Size  Location     Type
  4830 ;;                  1    wreg      void 
  4831 ;; Registers used:
  4832 ;;		None
  4833 ;; Tracked objects:
  4834 ;;		On entry : 0/0
  4835 ;;		On exit  : 0/0
  4836 ;;		Unchanged: 0/0
  4837 ;; Data sizes:     COMMON   BANK0   BANK1   BANK2   BANK3   BANK4   BANK5   BANK6   BANK7   BANK8   BANK9  BANK10  BANK1
      +1  BANK12
  4838 ;;      Params:         0       0       0       0       0       0       0       0       0       0       0       0       
      +0       0
  4839 ;;      Locals:         0       0       0       0       0       0       0       0       0       0       0       0       
      +0       0
  4840 ;;      Temps:          0       0       0       0       0       0       0       0       0       0       0       0       
      +0       0
  4841 ;;      Totals:         0       0       0       0       0       0       0       0       0       0       0       0       
      +0       0
  4842 ;;Total ram usage:        0 bytes
  4843 ;; Hardware stack levels used: 1
  4844 ;; This function calls:
  4845 ;;		Nothing
  4846 ;; This function is called by:
  4847 ;;		_set_pwm
  4848 ;; This function uses a non-reentrant model
  4849 ;;
  4850                           
  4851     02A6                     _PWM3_Start:	
  4852                           ;psect for function _PWM3_Start
  4853                           
  4854     02A6                     i1l1821:	
  4855                           ;incstack = 0
  4856                           ; Regs used in _PWM3_Start: []
  4857                           
  4858                           
  4859                           ;mcc_generated_files/pwm3.c: 115:     PWM3CONbits.EN = 1;
  4860     02A6  003B               	movlb	27	; select bank27
  4861     02A7  17BB               	bsf	59,7	;volatile
  4862     02A8                     i1l325:
  4863     02A8  0008               	return
  4864     02A9                     __end_of_PWM3_Start:
  4865                           
  4866                           	psect	text20
  4867     02A9                     __ptext20:	
  4868 ;; *************** function _PWM3_LoadBufferSet *****************
  4869 ;; Defined at:
  4870 ;;		line 128 in file "mcc_generated_files/pwm3.c"
  4871 ;; Parameters:    Size  Location     Type
  4872 ;;		None
  4873 ;; Auto vars:     Size  Location     Type
  4874 ;;		None
  4875 ;; Return value:  Size  Location     Type
  4876 ;;                  1    wreg      void 
  4877 ;; Registers used:
  4878 ;;		None
  4879 ;; Tracked objects:
  4880 ;;		On entry : 0/0
  4881 ;;		On exit  : 0/0
  4882 ;;		Unchanged: 0/0
  4883 ;; Data sizes:     COMMON   BANK0   BANK1   BANK2   BANK3   BANK4   BANK5   BANK6   BANK7   BANK8   BANK9  BANK10  BANK1
      +1  BANK12
  4884 ;;      Params:         0       0       0       0       0       0       0       0       0       0       0       0       
      +0       0
  4885 ;;      Locals:         0       0       0       0       0       0       0       0       0       0       0       0       
      +0       0
  4886 ;;      Temps:          0       0       0       0       0       0       0       0       0       0       0       0       
      +0       0
  4887 ;;      Totals:         0       0       0       0       0       0       0       0       0       0       0       0       
      +0       0
  4888 ;;Total ram usage:        0 bytes
  4889 ;; Hardware stack levels used: 1
  4890 ;; This function calls:
  4891 ;;		Nothing
  4892 ;; This function is called by:
  4893 ;;		_set_pwm
  4894 ;; This function uses a non-reentrant model
  4895 ;;
  4896                           
  4897     02A9                     _PWM3_LoadBufferSet:	
  4898                           ;psect for function _PWM3_LoadBufferSet
  4899                           
  4900     02A9                     i1l1823:	
  4901                           ;incstack = 0
  4902                           ; Regs used in _PWM3_LoadBufferSet: []
  4903                           
  4904                           
  4905                           ;mcc_generated_files/pwm3.c: 130:     PWM3LDCONbits.LDA = 1;
  4906     02A9  003B               	movlb	27	; select bank27
  4907     02AA  17BF               	bsf	63,7	;volatile
  4908     02AB                     i1l334:
  4909     02AB  0008               	return
  4910     02AC                     __end_of_PWM3_LoadBufferSet:
  4911                           
  4912                           	psect	text21
  4913     028A                     __ptext21:	
  4914 ;; *************** function _PWM3_DutyCycleSet *****************
  4915 ;; Defined at:
  4916 ;;		line 139 in file "mcc_generated_files/pwm3.c"
  4917 ;; Parameters:    Size  Location     Type
  4918 ;;  dutyCycleCou    2    0[COMMON] unsigned short 
  4919 ;; Auto vars:     Size  Location     Type
  4920 ;;		None
  4921 ;; Return value:  Size  Location     Type
  4922 ;;                  1    wreg      void 
  4923 ;; Registers used:
  4924 ;;		wreg, status,2
  4925 ;; Tracked objects:
  4926 ;;		On entry : 0/0
  4927 ;;		On exit  : 0/0
  4928 ;;		Unchanged: 0/0
  4929 ;; Data sizes:     COMMON   BANK0   BANK1   BANK2   BANK3   BANK4   BANK5   BANK6   BANK7   BANK8   BANK9  BANK10  BANK1
      +1  BANK12
  4930 ;;      Params:         2       0       0       0       0       0       0       0       0       0       0       0       
      +0       0
  4931 ;;      Locals:         0       0       0       0       0       0       0       0       0       0       0       0       
      +0       0
  4932 ;;      Temps:          0       0       0       0       0       0       0       0       0       0       0       0       
      +0       0
  4933 ;;      Totals:         2       0       0       0       0       0       0       0       0       0       0       0       
      +0       0
  4934 ;;Total ram usage:        2 bytes
  4935 ;; Hardware stack levels used: 1
  4936 ;; This function calls:
  4937 ;;		Nothing
  4938 ;; This function is called by:
  4939 ;;		_set_pwm
  4940 ;; This function uses a non-reentrant model
  4941 ;;
  4942                           
  4943     028A                     _PWM3_DutyCycleSet:	
  4944                           ;psect for function _PWM3_DutyCycleSet
  4945                           
  4946     028A                     i1l1825:	
  4947                           ;incstack = 0
  4948                           ; Regs used in _PWM3_DutyCycleSet: [wreg+status,2]
  4949                           
  4950                           
  4951                           ;mcc_generated_files/pwm3.c: 139: void PWM3_DutyCycleSet(uint16_t dutyCycleCount);mcc_ge
      +                          nerated_files/pwm3.c: 140: {;mcc_generated_files/pwm3.c: 141:     PWM3DCH = (dutyCycleCo
      +                          unt>>8);
  4952     028A  0871               	movf	PWM3_DutyCycleSet@dutyCycleCount+1,w
  4953     028B  003B               	movlb	27	; select bank27
  4954     028C  00B4               	movwf	52	;volatile
  4955     028D                     i1l1827:
  4956                           
  4957                           ;mcc_generated_files/pwm3.c: 142:     PWM3DCL = (dutyCycleCount);
  4958     028D  0870               	movf	PWM3_DutyCycleSet@dutyCycleCount,w
  4959     028E  00B3               	movwf	51	;volatile
  4960     028F                     i1l340:
  4961     028F  0008               	return
  4962     0290                     __end_of_PWM3_DutyCycleSet:
  4963                           
  4964                           	psect	text22
  4965     02AC                     __ptext22:	
  4966 ;; *************** function _PWM2_Start *****************
  4967 ;; Defined at:
  4968 ;;		line 113 in file "mcc_generated_files/pwm2.c"
  4969 ;; Parameters:    Size  Location     Type
  4970 ;;		None
  4971 ;; Auto vars:     Size  Location     Type
  4972 ;;		None
  4973 ;; Return value:  Size  Location     Type
  4974 ;;                  1    wreg      void 
  4975 ;; Registers used:
  4976 ;;		None
  4977 ;; Tracked objects:
  4978 ;;		On entry : 0/0
  4979 ;;		On exit  : 0/0
  4980 ;;		Unchanged: 0/0
  4981 ;; Data sizes:     COMMON   BANK0   BANK1   BANK2   BANK3   BANK4   BANK5   BANK6   BANK7   BANK8   BANK9  BANK10  BANK1
      +1  BANK12
  4982 ;;      Params:         0       0       0       0       0       0       0       0       0       0       0       0       
      +0       0
  4983 ;;      Locals:         0       0       0       0       0       0       0       0       0       0       0       0       
      +0       0
  4984 ;;      Temps:          0       0       0       0       0       0       0       0       0       0       0       0       
      +0       0
  4985 ;;      Totals:         0       0       0       0       0       0       0       0       0       0       0       0       
      +0       0
  4986 ;;Total ram usage:        0 bytes
  4987 ;; Hardware stack levels used: 1
  4988 ;; This function calls:
  4989 ;;		Nothing
  4990 ;; This function is called by:
  4991 ;;		_set_pwm
  4992 ;; This function uses a non-reentrant model
  4993 ;;
  4994                           
  4995     02AC                     _PWM2_Start:	
  4996                           ;psect for function _PWM2_Start
  4997                           
  4998     02AC                     i1l1813:	
  4999                           ;incstack = 0
  5000                           ; Regs used in _PWM2_Start: []
  5001                           
  5002                           
  5003                           ;mcc_generated_files/pwm2.c: 115:     PWM2CONbits.EN = 1;
  5004     02AC  003B               	movlb	27	; select bank27
  5005     02AD  17AB               	bsf	43,7	;volatile
  5006     02AE                     i1l245:
  5007     02AE  0008               	return
  5008     02AF                     __end_of_PWM2_Start:
  5009                           
  5010                           	psect	text23
  5011     02AF                     __ptext23:	
  5012 ;; *************** function _PWM2_LoadBufferSet *****************
  5013 ;; Defined at:
  5014 ;;		line 128 in file "mcc_generated_files/pwm2.c"
  5015 ;; Parameters:    Size  Location     Type
  5016 ;;		None
  5017 ;; Auto vars:     Size  Location     Type
  5018 ;;		None
  5019 ;; Return value:  Size  Location     Type
  5020 ;;                  1    wreg      void 
  5021 ;; Registers used:
  5022 ;;		None
  5023 ;; Tracked objects:
  5024 ;;		On entry : 0/0
  5025 ;;		On exit  : 0/0
  5026 ;;		Unchanged: 0/0
  5027 ;; Data sizes:     COMMON   BANK0   BANK1   BANK2   BANK3   BANK4   BANK5   BANK6   BANK7   BANK8   BANK9  BANK10  BANK1
      +1  BANK12
  5028 ;;      Params:         0       0       0       0       0       0       0       0       0       0       0       0       
      +0       0
  5029 ;;      Locals:         0       0       0       0       0       0       0       0       0       0       0       0       
      +0       0
  5030 ;;      Temps:          0       0       0       0       0       0       0       0       0       0       0       0       
      +0       0
  5031 ;;      Totals:         0       0       0       0       0       0       0       0       0       0       0       0       
      +0       0
  5032 ;;Total ram usage:        0 bytes
  5033 ;; Hardware stack levels used: 1
  5034 ;; This function calls:
  5035 ;;		Nothing
  5036 ;; This function is called by:
  5037 ;;		_set_pwm
  5038 ;; This function uses a non-reentrant model
  5039 ;;
  5040                           
  5041     02AF                     _PWM2_LoadBufferSet:	
  5042                           ;psect for function _PWM2_LoadBufferSet
  5043                           
  5044     02AF                     i1l1815:	
  5045                           ;incstack = 0
  5046                           ; Regs used in _PWM2_LoadBufferSet: []
  5047                           
  5048                           
  5049                           ;mcc_generated_files/pwm2.c: 130:     PWM2LDCONbits.LDA = 1;
  5050     02AF  003B               	movlb	27	; select bank27
  5051     02B0  17AF               	bsf	47,7	;volatile
  5052     02B1                     i1l254:
  5053     02B1  0008               	return
  5054     02B2                     __end_of_PWM2_LoadBufferSet:
  5055                           
  5056                           	psect	text24
  5057     0290                     __ptext24:	
  5058 ;; *************** function _PWM2_DutyCycleSet *****************
  5059 ;; Defined at:
  5060 ;;		line 139 in file "mcc_generated_files/pwm2.c"
  5061 ;; Parameters:    Size  Location     Type
  5062 ;;  dutyCycleCou    2    0[COMMON] unsigned short 
  5063 ;; Auto vars:     Size  Location     Type
  5064 ;;		None
  5065 ;; Return value:  Size  Location     Type
  5066 ;;                  1    wreg      void 
  5067 ;; Registers used:
  5068 ;;		wreg, status,2
  5069 ;; Tracked objects:
  5070 ;;		On entry : 0/0
  5071 ;;		On exit  : 0/0
  5072 ;;		Unchanged: 0/0
  5073 ;; Data sizes:     COMMON   BANK0   BANK1   BANK2   BANK3   BANK4   BANK5   BANK6   BANK7   BANK8   BANK9  BANK10  BANK1
      +1  BANK12
  5074 ;;      Params:         2       0       0       0       0       0       0       0       0       0       0       0       
      +0       0
  5075 ;;      Locals:         0       0       0       0       0       0       0       0       0       0       0       0       
      +0       0
  5076 ;;      Temps:          0       0       0       0       0       0       0       0       0       0       0       0       
      +0       0
  5077 ;;      Totals:         2       0       0       0       0       0       0       0       0       0       0       0       
      +0       0
  5078 ;;Total ram usage:        2 bytes
  5079 ;; Hardware stack levels used: 1
  5080 ;; This function calls:
  5081 ;;		Nothing
  5082 ;; This function is called by:
  5083 ;;		_set_pwm
  5084 ;; This function uses a non-reentrant model
  5085 ;;
  5086                           
  5087     0290                     _PWM2_DutyCycleSet:	
  5088                           ;psect for function _PWM2_DutyCycleSet
  5089                           
  5090     0290                     i1l1817:	
  5091                           ;incstack = 0
  5092                           ; Regs used in _PWM2_DutyCycleSet: [wreg+status,2]
  5093                           
  5094                           
  5095                           ;mcc_generated_files/pwm2.c: 139: void PWM2_DutyCycleSet(uint16_t dutyCycleCount);mcc_ge
      +                          nerated_files/pwm2.c: 140: {;mcc_generated_files/pwm2.c: 141:     PWM2DCH = (dutyCycleCo
      +                          unt>>8);
  5096     0290  0871               	movf	PWM2_DutyCycleSet@dutyCycleCount+1,w
  5097     0291  003B               	movlb	27	; select bank27
  5098     0292  00A4               	movwf	36	;volatile
  5099     0293                     i1l1819:
  5100                           
  5101                           ;mcc_generated_files/pwm2.c: 142:     PWM2DCL = (dutyCycleCount);
  5102     0293  0870               	movf	PWM2_DutyCycleSet@dutyCycleCount,w
  5103     0294  00A3               	movwf	35	;volatile
  5104     0295                     i1l260:
  5105     0295  0008               	return
  5106     0296                     __end_of_PWM2_DutyCycleSet:
  5107                           
  5108                           	psect	text25
  5109     02B2                     __ptext25:	
  5110 ;; *************** function _PWM1_Start *****************
  5111 ;; Defined at:
  5112 ;;		line 113 in file "mcc_generated_files/pwm1.c"
  5113 ;; Parameters:    Size  Location     Type
  5114 ;;		None
  5115 ;; Auto vars:     Size  Location     Type
  5116 ;;		None
  5117 ;; Return value:  Size  Location     Type
  5118 ;;                  1    wreg      void 
  5119 ;; Registers used:
  5120 ;;		None
  5121 ;; Tracked objects:
  5122 ;;		On entry : 0/0
  5123 ;;		On exit  : 0/0
  5124 ;;		Unchanged: 0/0
  5125 ;; Data sizes:     COMMON   BANK0   BANK1   BANK2   BANK3   BANK4   BANK5   BANK6   BANK7   BANK8   BANK9  BANK10  BANK1
      +1  BANK12
  5126 ;;      Params:         0       0       0       0       0       0       0       0       0       0       0       0       
      +0       0
  5127 ;;      Locals:         0       0       0       0       0       0       0       0       0       0       0       0       
      +0       0
  5128 ;;      Temps:          0       0       0       0       0       0       0       0       0       0       0       0       
      +0       0
  5129 ;;      Totals:         0       0       0       0       0       0       0       0       0       0       0       0       
      +0       0
  5130 ;;Total ram usage:        0 bytes
  5131 ;; Hardware stack levels used: 1
  5132 ;; This function calls:
  5133 ;;		Nothing
  5134 ;; This function is called by:
  5135 ;;		_set_pwm
  5136 ;; This function uses a non-reentrant model
  5137 ;;
  5138                           
  5139     02B2                     _PWM1_Start:	
  5140                           ;psect for function _PWM1_Start
  5141                           
  5142     02B2                     i1l1805:	
  5143                           ;incstack = 0
  5144                           ; Regs used in _PWM1_Start: []
  5145                           
  5146                           
  5147                           ;mcc_generated_files/pwm1.c: 115:     PWM1CONbits.EN = 1;
  5148     02B2  003B               	movlb	27	; select bank27
  5149     02B3  179B               	bsf	27,7	;volatile
  5150     02B4                     i1l165:
  5151     02B4  0008               	return
  5152     02B5                     __end_of_PWM1_Start:
  5153                           
  5154                           	psect	text26
  5155     02B5                     __ptext26:	
  5156 ;; *************** function _PWM1_LoadBufferSet *****************
  5157 ;; Defined at:
  5158 ;;		line 128 in file "mcc_generated_files/pwm1.c"
  5159 ;; Parameters:    Size  Location     Type
  5160 ;;		None
  5161 ;; Auto vars:     Size  Location     Type
  5162 ;;		None
  5163 ;; Return value:  Size  Location     Type
  5164 ;;                  1    wreg      void 
  5165 ;; Registers used:
  5166 ;;		None
  5167 ;; Tracked objects:
  5168 ;;		On entry : 0/0
  5169 ;;		On exit  : 0/0
  5170 ;;		Unchanged: 0/0
  5171 ;; Data sizes:     COMMON   BANK0   BANK1   BANK2   BANK3   BANK4   BANK5   BANK6   BANK7   BANK8   BANK9  BANK10  BANK1
      +1  BANK12
  5172 ;;      Params:         0       0       0       0       0       0       0       0       0       0       0       0       
      +0       0
  5173 ;;      Locals:         0       0       0       0       0       0       0       0       0       0       0       0       
      +0       0
  5174 ;;      Temps:          0       0       0       0       0       0       0       0       0       0       0       0       
      +0       0
  5175 ;;      Totals:         0       0       0       0       0       0       0       0       0       0       0       0       
      +0       0
  5176 ;;Total ram usage:        0 bytes
  5177 ;; Hardware stack levels used: 1
  5178 ;; This function calls:
  5179 ;;		Nothing
  5180 ;; This function is called by:
  5181 ;;		_set_pwm
  5182 ;; This function uses a non-reentrant model
  5183 ;;
  5184                           
  5185     02B5                     _PWM1_LoadBufferSet:	
  5186                           ;psect for function _PWM1_LoadBufferSet
  5187                           
  5188     02B5                     i1l1807:	
  5189                           ;incstack = 0
  5190                           ; Regs used in _PWM1_LoadBufferSet: []
  5191                           
  5192                           
  5193                           ;mcc_generated_files/pwm1.c: 130:     PWM1LDCONbits.LDA = 1;
  5194     02B5  003B               	movlb	27	; select bank27
  5195     02B6  179F               	bsf	31,7	;volatile
  5196     02B7                     i1l174:
  5197     02B7  0008               	return
  5198     02B8                     __end_of_PWM1_LoadBufferSet:
  5199                           
  5200                           	psect	text27
  5201     0296                     __ptext27:	
  5202 ;; *************** function _PWM1_DutyCycleSet *****************
  5203 ;; Defined at:
  5204 ;;		line 139 in file "mcc_generated_files/pwm1.c"
  5205 ;; Parameters:    Size  Location     Type
  5206 ;;  dutyCycleCou    2    0[COMMON] unsigned short 
  5207 ;; Auto vars:     Size  Location     Type
  5208 ;;		None
  5209 ;; Return value:  Size  Location     Type
  5210 ;;                  1    wreg      void 
  5211 ;; Registers used:
  5212 ;;		wreg, status,2
  5213 ;; Tracked objects:
  5214 ;;		On entry : 0/0
  5215 ;;		On exit  : 0/0
  5216 ;;		Unchanged: 0/0
  5217 ;; Data sizes:     COMMON   BANK0   BANK1   BANK2   BANK3   BANK4   BANK5   BANK6   BANK7   BANK8   BANK9  BANK10  BANK1
      +1  BANK12
  5218 ;;      Params:         2       0       0       0       0       0       0       0       0       0       0       0       
      +0       0
  5219 ;;      Locals:         0       0       0       0       0       0       0       0       0       0       0       0       
      +0       0
  5220 ;;      Temps:          0       0       0       0       0       0       0       0       0       0       0       0       
      +0       0
  5221 ;;      Totals:         2       0       0       0       0       0       0       0       0       0       0       0       
      +0       0
  5222 ;;Total ram usage:        2 bytes
  5223 ;; Hardware stack levels used: 1
  5224 ;; This function calls:
  5225 ;;		Nothing
  5226 ;; This function is called by:
  5227 ;;		_set_pwm
  5228 ;; This function uses a non-reentrant model
  5229 ;;
  5230                           
  5231     0296                     _PWM1_DutyCycleSet:	
  5232                           ;psect for function _PWM1_DutyCycleSet
  5233                           
  5234     0296                     i1l1809:	
  5235                           ;incstack = 0
  5236                           ; Regs used in _PWM1_DutyCycleSet: [wreg+status,2]
  5237                           
  5238                           
  5239                           ;mcc_generated_files/pwm1.c: 139: void PWM1_DutyCycleSet(uint16_t dutyCycleCount);mcc_ge
      +                          nerated_files/pwm1.c: 140: {;mcc_generated_files/pwm1.c: 141:     PWM1DCH = (dutyCycleCo
      +                          unt>>8);
  5240     0296  0871               	movf	PWM1_DutyCycleSet@dutyCycleCount+1,w
  5241     0297  003B               	movlb	27	; select bank27
  5242     0298  0094               	movwf	20	;volatile
  5243     0299                     i1l1811:
  5244                           
  5245                           ;mcc_generated_files/pwm1.c: 142:     PWM1DCL = (dutyCycleCount);
  5246     0299  0870               	movf	PWM1_DutyCycleSet@dutyCycleCount,w
  5247     029A  0093               	movwf	19	;volatile
  5248     029B                     i1l180:
  5249     029B  0008               	return
  5250     029C                     __end_of_PWM1_DutyCycleSet:
  5251     007E                     btemp	set	126	;btemp
  5252     007E                     int$flags	set	126
  5253     007E                     wtemp0	set	126
  5254                           
  5255                           	psect	config
  5256                           
  5257                           ;Config register CONFIG1 @ 0x8007
  5258                           ;	Oscillator Selection Bits
  5259                           ;	FOSC = INTOSC, INTOSC oscillator; I/O function on CLKIN pin
  5260                           ;	Watchdog Timer Enable
  5261                           ;	WDTE = ON, WDT enabled
  5262                           ;	Power-up Timer Enable
  5263                           ;	PWRTE = OFF, PWRT disabled
  5264                           ;	MCLR Pin Function Select
  5265                           ;	MCLRE = OFF, MCLR/VPP pin function is digital input
  5266                           ;	Flash Program Memory Code Protection
  5267                           ;	CP = OFF, Program memory code protection is disabled
  5268                           ;	Brown-out Reset Enable
  5269                           ;	BOREN = ON, Brown-out Reset enabled
  5270                           ;	Clock Out Enable
  5271                           ;	CLKOUTEN = OFF, CLKOUT function is disabled. I/O or oscillator function on the CLKOUT 
      +                          pin
  5272     8007                     	org	32775
  5273     8007  3FBC               	dw	16316
  5274                           
  5275                           ;Config register CONFIG2 @ 0x8008
  5276                           ;	Flash Memory Self-Write Protection
  5277                           ;	WRT = OFF, Write protection off
  5278                           ;	PPSLOCK bit One-Way Set Enable bit
  5279                           ;	PPS1WAY = ON, PPSLOCKED Bit Can Be Cleared & Set Once
  5280                           ;	PLL Enable
  5281                           ;	PLLEN = ON, 4x PLL enabled
  5282                           ;	Stack Overflow/Underflow Reset Enable
  5283                           ;	STVREN = ON, Stack Overflow or Underflow will cause a Reset
  5284                           ;	Brown-out Reset Voltage Selection
  5285                           ;	BORV = LO, Brown-out Reset Voltage (Vbor), low trip point selected.
  5286                           ;	Low Power Brown-out Reset enable bit
  5287                           ;	LPBOREN = OFF, LPBOR is disabled
  5288                           ;	Low-Voltage Programming Enable
  5289                           ;	LVP = OFF, High-voltage on MCLR/VPP must be used for programming
  5290     8008                     	org	32776
  5291     8008  1FFF               	dw	8191

Data Sizes:
    Strings     0
    Constant    0
    Data        8
    BSS         11
    Persistent  34
    Stack       0

Auto Spaces:
    Space          Size  Autos    Used
    COMMON           14     13      13
    BANK0            80      4      25
    BANK1            80      0       0
    BANK2            80      0       0
    BANK3            80      0       0
    BANK4            80      0       0
    BANK5            80      0       0
    BANK6            80      0       0
    BANK7            80      0       0
    BANK8            80      0       0
    BANK9            80      0       0
    BANK10           80      0       0
    BANK11           80      0       0
    BANK12           32      0       0

Pointer List with Targets:

    IOCCF4_SetInterruptHandler@InterruptHandler	PTR FTN()void  size(2) Largest target is 1
		 -> int_strb(), IOCCF4_DefaultInterruptHandler(), 

    IOCCF4_InterruptHandler	PTR FTN()void  size(2) Largest target is 1
		 -> int_strb(), NULL(), IOCCF4_DefaultInterruptHandler(), 


Critical Paths under _main in COMMON

    None.

Critical Paths under _INTERRUPT_InterruptManager in COMMON

    _IOCCF4_ISR->_int_strb
    _int_strb->_set_pwm
    _set_pwm->_PWM1_DutyCycleSet
    _set_pwm->_PWM2_DutyCycleSet
    _set_pwm->_PWM3_DutyCycleSet
    _set_pwm->_PWM4_DutyCycleSet

Critical Paths under _main in BANK0

    _main->_IOCCF4_SetInterruptHandler
    _PIN_MANAGER_Initialize->_IOCCF4_SetInterruptHandler

Critical Paths under _INTERRUPT_InterruptManager in BANK0

    None.

Critical Paths under _main in BANK1

    None.

Critical Paths under _INTERRUPT_InterruptManager in BANK1

    None.

Critical Paths under _main in BANK2

    None.

Critical Paths under _INTERRUPT_InterruptManager in BANK2

    None.

Critical Paths under _main in BANK3

    None.

Critical Paths under _INTERRUPT_InterruptManager in BANK3

    None.

Critical Paths under _main in BANK4

    None.

Critical Paths under _INTERRUPT_InterruptManager in BANK4

    None.

Critical Paths under _main in BANK5

    None.

Critical Paths under _INTERRUPT_InterruptManager in BANK5

    None.

Critical Paths under _main in BANK6

    None.

Critical Paths under _INTERRUPT_InterruptManager in BANK6

    None.

Critical Paths under _main in BANK7

    None.

Critical Paths under _INTERRUPT_InterruptManager in BANK7

    None.

Critical Paths under _main in BANK8

    None.

Critical Paths under _INTERRUPT_InterruptManager in BANK8

    None.

Critical Paths under _main in BANK9

    None.

Critical Paths under _INTERRUPT_InterruptManager in BANK9

    None.

Critical Paths under _main in BANK10

    None.

Critical Paths under _INTERRUPT_InterruptManager in BANK10

    None.

Critical Paths under _main in BANK11

    None.

Critical Paths under _INTERRUPT_InterruptManager in BANK11

    None.

Critical Paths under _main in BANK12

    None.

Critical Paths under _INTERRUPT_InterruptManager in BANK12

    None.

Call Graph Tables:

 ---------------------------------------------------------------------------------
 (Depth) Function   	        Calls       Base Space   Used Autos Params    Refs
 ---------------------------------------------------------------------------------
 (0) _main                                                 2     2      0     348
                                              2 BANK0      2     2      0
         _IOCCF4_SetInterruptHandler
                  _SYSTEM_Initialize
 ---------------------------------------------------------------------------------
 (1) _SYSTEM_Initialize                                    0     0      0     174
              _OSCILLATOR_Initialize
             _PIN_MANAGER_Initialize
                    _PWM1_Initialize
                    _PWM2_Initialize
                    _PWM3_Initialize
                    _PWM4_Initialize
                     _WDT_Initialize
 ---------------------------------------------------------------------------------
 (2) _WDT_Initialize                                       0     0      0       0
 ---------------------------------------------------------------------------------
 (2) _PWM4_Initialize                                      0     0      0       0
 ---------------------------------------------------------------------------------
 (2) _PWM3_Initialize                                      0     0      0       0
 ---------------------------------------------------------------------------------
 (2) _PWM2_Initialize                                      0     0      0       0
 ---------------------------------------------------------------------------------
 (2) _PWM1_Initialize                                      0     0      0       0
 ---------------------------------------------------------------------------------
 (2) _PIN_MANAGER_Initialize                               0     0      0     174
         _IOCCF4_SetInterruptHandler
 ---------------------------------------------------------------------------------
 (3) _IOCCF4_SetInterruptHandler                           2     0      2     174
                                              0 BANK0      2     0      2
 ---------------------------------------------------------------------------------
 (2) _OSCILLATOR_Initialize                                0     0      0       0
 ---------------------------------------------------------------------------------
 Estimated maximum stack depth 3
 ---------------------------------------------------------------------------------
 (Depth) Function   	        Calls       Base Space   Used Autos Params    Refs
 ---------------------------------------------------------------------------------
 (4) _INTERRUPT_InterruptManager                           0     0      0    1043
                    _PIN_MANAGER_IOC
 ---------------------------------------------------------------------------------
 (5) _PIN_MANAGER_IOC                                      0     0      0    1043
                         _IOCCF4_ISR
 ---------------------------------------------------------------------------------
 (6) _IOCCF4_ISR                                           0     0      0    1043
                                NULL *
     _IOCCF4_DefaultInterruptHandler *
                           _int_strb *
 ---------------------------------------------------------------------------------
 (7) _int_strb                                             4     4      0    1043
                                              9 COMMON     4     4      0
                            _set_pwm
 ---------------------------------------------------------------------------------
 (8) _set_pwm                                              7     7      0     904
                                              2 COMMON     7     7      0
                  _PWM1_DutyCycleSet
                 _PWM1_LoadBufferSet
                         _PWM1_Start
                  _PWM2_DutyCycleSet
                 _PWM2_LoadBufferSet
                         _PWM2_Start
                  _PWM3_DutyCycleSet
                 _PWM3_LoadBufferSet
                         _PWM3_Start
                  _PWM4_DutyCycleSet
                 _PWM4_LoadBufferSet
                         _PWM4_Start
 ---------------------------------------------------------------------------------
 (9) _PWM4_Start                                           0     0      0       0
 ---------------------------------------------------------------------------------
 (9) _PWM4_LoadBufferSet                                   0     0      0       0
 ---------------------------------------------------------------------------------
 (9) _PWM4_DutyCycleSet                                    2     0      2     120
                                              0 COMMON     2     0      2
 ---------------------------------------------------------------------------------
 (9) _PWM3_Start                                           0     0      0       0
 ---------------------------------------------------------------------------------
 (9) _PWM3_LoadBufferSet                                   0     0      0       0
 ---------------------------------------------------------------------------------
 (9) _PWM3_DutyCycleSet                                    2     0      2     120
                                              0 COMMON     2     0      2
 ---------------------------------------------------------------------------------
 (9) _PWM2_Start                                           0     0      0       0
 ---------------------------------------------------------------------------------
 (9) _PWM2_LoadBufferSet                                   0     0      0       0
 ---------------------------------------------------------------------------------
 (9) _PWM2_DutyCycleSet                                    2     0      2     120
                                              0 COMMON     2     0      2
 ---------------------------------------------------------------------------------
 (9) _PWM1_Start                                           0     0      0       0
 ---------------------------------------------------------------------------------
 (9) _PWM1_LoadBufferSet                                   0     0      0       0
 ---------------------------------------------------------------------------------
 (9) _PWM1_DutyCycleSet                                    2     0      2     120
                                              0 COMMON     2     0      2
 ---------------------------------------------------------------------------------
 (7) _IOCCF4_DefaultInterruptHandler                       0     0      0       0
 ---------------------------------------------------------------------------------
 (7) NULL(Fake)                                            0     0      0       0
 ---------------------------------------------------------------------------------
 Estimated maximum stack depth 9
 ---------------------------------------------------------------------------------

 Call Graph Graphs:

 _main (ROOT)
   _IOCCF4_SetInterruptHandler
   _SYSTEM_Initialize
     _OSCILLATOR_Initialize
     _PIN_MANAGER_Initialize
       _IOCCF4_SetInterruptHandler
     _PWM1_Initialize
     _PWM2_Initialize
     _PWM3_Initialize
     _PWM4_Initialize
     _WDT_Initialize

 _INTERRUPT_InterruptManager (ROOT)
   _PIN_MANAGER_IOC
     _IOCCF4_ISR
       NULL(Fake) *
       _IOCCF4_DefaultInterruptHandler *
       _int_strb *
         _set_pwm
           _PWM1_DutyCycleSet
           _PWM1_LoadBufferSet
           _PWM1_Start
           _PWM2_DutyCycleSet
           _PWM2_LoadBufferSet
           _PWM2_Start
           _PWM3_DutyCycleSet
           _PWM3_LoadBufferSet
           _PWM3_Start
           _PWM4_DutyCycleSet
           _PWM4_LoadBufferSet
           _PWM4_Start

 Address spaces:
Name               Size   Autos  Total    Cost      Usage
BIGRAM             3E0      0       0       0        0.0%
NULL                 0      0       0       0        0.0%
CODE                 0      0       0       0        0.0%
BITCOMMON            E      0       0       1        0.0%
BITSFR0              0      0       0       1        0.0%
SFR0                 0      0       0       1        0.0%
COMMON               E      D       D       2       92.9%
BITSFR1              0      0       0       2        0.0%
SFR1                 0      0       0       2        0.0%
BITSFR2              0      0       0       3        0.0%
SFR2                 0      0       0       3        0.0%
STACK                0      0       0       3        0.0%
BITBANK0            50      0       0       4        0.0%
BITSFR3              0      0       0       4        0.0%
SFR3                 0      0       0       4        0.0%
BANK0               50      4      19       5       31.2%
BITSFR4              0      0       0       5        0.0%
SFR4                 0      0       0       5        0.0%
BITBANK1            50      0       0       6        0.0%
BITSFR5              0      0       0       6        0.0%
SFR5                 0      0       0       6        0.0%
BANK1               50      0       0       7        0.0%
BITSFR6              0      0       0       7        0.0%
SFR6                 0      0       0       7        0.0%
BITBANK2            50      0       0       8        0.0%
BITSFR7              0      0       0       8        0.0%
SFR7                 0      0       0       8        0.0%
BANK2               50      0       0       9        0.0%
BITSFR8              0      0       0       9        0.0%
SFR8                 0      0       0       9        0.0%
BITBANK3            50      0       0      10        0.0%
BITSFR9              0      0       0      10        0.0%
SFR9                 0      0       0      10        0.0%
BANK3               50      0       0      11        0.0%
BITSFR10             0      0       0      11        0.0%
SFR10                0      0       0      11        0.0%
BITBANK4            50      0       0      12        0.0%
BITSFR11             0      0       0      12        0.0%
SFR11                0      0       0      12        0.0%
BANK4               50      0       0      13        0.0%
BITSFR12             0      0       0      13        0.0%
SFR12                0      0       0      13        0.0%
BITBANK5            50      0       0      14        0.0%
BITSFR13             0      0       0      14        0.0%
SFR13                0      0       0      14        0.0%
BANK5               50      0       0      15        0.0%
BITSFR14             0      0       0      15        0.0%
SFR14                0      0       0      15        0.0%
BITBANK6            50      0       0      16        0.0%
BITSFR15             0      0       0      16        0.0%
SFR15                0      0       0      16        0.0%
BANK6               50      0       0      17        0.0%
BITSFR16             0      0       0      17        0.0%
SFR16                0      0       0      17        0.0%
BITBANK7            50      0       0      18        0.0%
BITSFR17             0      0       0      18        0.0%
SFR17                0      0       0      18        0.0%
BANK7               50      0       0      19        0.0%
BITSFR18             0      0       0      19        0.0%
SFR18                0      0       0      19        0.0%
BITSFR19             0      0       0      20        0.0%
SFR19                0      0       0      20        0.0%
ABS                  0      0      26      20        0.0%
BITBANK8            50      0       0      21        0.0%
BITSFR20             0      0       0      21        0.0%
SFR20                0      0       0      21        0.0%
BANK8               50      0       0      22        0.0%
BITSFR21             0      0       0      22        0.0%
SFR21                0      0       0      22        0.0%
BITBANK9            50      0       0      23        0.0%
BITSFR22             0      0       0      23        0.0%
SFR22                0      0       0      23        0.0%
BANK9               50      0       0      24        0.0%
BITSFR23             0      0       0      24        0.0%
SFR23                0      0       0      24        0.0%
BITBANK10           50      0       0      25        0.0%
BITSFR24             0      0       0      25        0.0%
SFR24                0      0       0      25        0.0%
BANK10              50      0       0      26        0.0%
BITSFR25             0      0       0      26        0.0%
SFR25                0      0       0      26        0.0%
BITBANK11           50      0       0      27        0.0%
BITSFR26             0      0       0      27        0.0%
SFR26                0      0       0      27        0.0%
BANK11              50      0       0      28        0.0%
BITSFR27             0      0       0      28        0.0%
SFR27                0      0       0      28        0.0%
BITBANK12           20      0       0      29        0.0%
BITSFR28             0      0       0      29        0.0%
SFR28                0      0       0      29        0.0%
BANK12              20      0       0      30        0.0%
BITSFR29             0      0       0      30        0.0%
SFR29                0      0       0      30        0.0%
BITSFR30             0      0       0      31        0.0%
SFR30                0      0       0      31        0.0%
DATA                 0      0      26      31        0.0%
BITSFR31             0      0       0      32        0.0%
SFR31                0      0       0      32        0.0%


Microchip Technology PIC Macro Assembler V2.41 build 20230208172133 
Symbol Table                                                                                   Wed Jan 24 16:58:29 2024

                       ??_PWM3_DutyCycleSet 0072                                           _i 002A  
    __end_of_IOCCF4_DefaultInterruptHandler 02B9              _IOCCF4_DefaultInterruptHandler 02B8  
                                        l71 019E                                          l82 0283  
                                       l112 024B                                         l121 029F  
                                       l115 0261                                         l118 0266  
                                       l162 0235                                         l242 021C  
                                       l322 0203                                         l402 01EA  
                                       l540 0111                                         l534 010B  
                                       l544 0120                                         l536 010D  
                                       l538 010E                                         l555 0152  
                                       l539 010F                                         l557 0154  
                                       l559 0155                                         u500 010B  
                                       u501 010A                                         u510 0127  
                                       u511 0126                                         u520 012B  
                                       u521 012A                                         u530 0135  
                                       u531 0134                                         u460 0266  
                                       u540 0140                                         u461 0265  
                                       u541 013F                                         u550 0144  
                                       u551 0143                                         u560 014F  
                                       u561 014E                                         u577 0118  
                                       u587 015A                             _PWM4_Initialize 01D2  
                                       wreg 0009                   __end_of_PWM3_DutyCycleSet 0290  
                                      l2001 0232                                        l2011 020B  
                                      l2003 0204                                        l2021 0213  
                                      l2013 020C                                        l2005 0207  
                                      l2101 00F1                                        l2023 0215  
                                      l2015 020D                                        l2007 0209  
                                      l2031 01D5                                        l2111 0121  
                                      l2103 0101                                        l2025 0218  
                                      l2017 020F                                        l2009 020A  
                                      l2041 01DB                                        l2033 01D7  
                                      l2121 0136                                        l2113 0127  
                                      l2105 0105                                        l2027 0219  
                                      l2019 0211                                        l2051 01E6  
                                      l2043 01DD                                        l2035 01D8  
                                      l2131 0145                                        l2115 012B  
                                      l2123 0139                                        l2107 0112  
                                      l2061 01F1                                        l2053 01E7  
                                      l2045 01DF                                        l2037 01D9  
                                      l2029 01D2                                        l2133 0149  
                                      l2117 012F                                        l2125 013B  
                                      l2109 011E                                        l2071 01F8  
                                      l2063 01F2                                        l2055 01EB  
                                      l2047 01E1                                        l2039 01DA  
                                      l2135 014F                                        l2127 0140  
                                      l2119 0135                                        l2073 01FA  
                                      l2065 01F3                                        l2057 01EE  
                                      l2049 01E3                                        l2137 0156  
                                      l2075 01FC                                        l2067 01F4  
                                      l2059 01F0                                        l2077 01FF  
                                      l2069 01F6                                        l2085 0236  
                                      l2093 00E4                                        l2079 0200  
                                      l2095 00EF                                        l1921 0162  
                                      l1931 0171                                        l1923 0166  
                                      l1941 0179                                        l1933 0173  
                                      l1925 0169                                        l1951 018C  
                                      l1943 017A                                        l1935 0174  
                                      l1927 016C                                        l1961 019C  
                                      l1953 0194                                        l1945 0189  
                                      l1937 0175                                        l1929 016E  
                                      l1971 025E                                        l1955 0195  
                                      l1947 018A                                        l1939 0177  
                                      l1973 025F                                        l1893 027E  
                                      l1957 0198                                        l1949 018B  
                                      l1981 0222                                        l1959 019A  
                                      l1991 0228                                        l1983 0223  
                                      l1975 029C                                        l1969 025B  
                                      l1993 022A                                        l1985 0224  
                                      l1977 021D                                        l1995 022C  
                                      l1987 0225                                        l1979 0220  
                                      l1997 022E                                        l1989 0226  
                                      l1999 0231                     __end_of_PWM1_Initialize 0236  
                                      _LATA 010C                                        _LATB 010D  
                                      _LATC 010E                                        i1l75 026F  
                                      i1l85 02B8                                        i1l79 025A  
                                      _PLLR 04D6                                        _WPUA 020C  
                                      _WPUB 020D                                        _WPUC 020E  
                                      _data 0020                                        _main 00E4  
                                      _mode 0029                                        _pwm0 002B  
                                      fsr0h 0005                                        fsr1h 0007  
                                      fsr0l 0004                                        indf1 0001  
                                      fsr1l 0006                                        btemp 007E  
                                      start 0013                          _PWM4_LoadBufferSet 02A3  
                   __end_of_PWM2_Initialize 021D                         ?_PWM4_LoadBufferSet 0070  
             __end_of_OSCILLATOR_Initialize 0267                                       ?_main 0070  
                                     i1l180 029B                                       i1l260 0295  
                                     i1l340 028F                                       i1l420 0289  
                                     i1l165 02B4                                       i1l245 02AE  
                                     i1l325 02A8                                       i1l405 02A2  
                                     i1l174 02B7                                       i1l254 02B1  
                                     i1l334 02AB                                       i1l414 02A5  
                                     i1l502 00E3                                       i1l521 01D1  
                                     i1l515 01A2                                       i1l452 0011  
                                     i1l518 01A9                                       u40_20 00AB  
                                     u40_21 00AA                                       u33_20 0042  
                                     u41_20 01A7                                       u33_21 0041  
                                     u41_21 01A6                                       u34_20 004C  
                                     u42_20 01AD                                       u34_21 004B  
                                     u42_21 01AC                                       u35_20 005B  
                                     u43_20 01BE                                       u35_21 005A  
                                     u43_21 01BD                                       u36_20 0065  
                                     u44_20 01CE                                       u36_21 0064  
                                     u44_21 01CD                                       u36_25 0061  
                                     u37_20 0074                                       u45_20 0253  
                                     u37_21 0073                                       u45_21 0252  
                                     u38_20 0084                                       u38_21 0083  
                                     u38_25 0080                                       u39_20 0093  
                                     u47_20 026C                                       u39_21 0092  
                                     u47_21 026B                                       u48_20 000A  
                                     u48_21 0009                                       u49_20 000E  
                                     u49_21 000D                                       _TRISA 008C  
                                     _TRISB 008D                                       _TRISC 008E  
                               ?_PWM1_Start 0070                                 ?_PWM2_Start 0070  
                               ?_PWM3_Start 0070                     __end_of_PIN_MANAGER_IOC 0270  
                               ?_PWM4_Start 0070                              _WDT_Initialize 029C  
                      ??_PWM4_LoadBufferSet 0070                     __end_of_PWM3_Initialize 0204  
                                     pclath 000A                             __end_of_set_pwm 00E4  
                         _PWM4_DutyCycleSet 0284                                       status 0003  
                                     wtemp0 007E                          ?_PWM4_DutyCycleSet 0070  
           PWM3_DutyCycleSet@dutyCycleCount 0070                             __initialization 0015  
                              __end_of_main 0162                         ??_PWM4_DutyCycleSet 0072  
                   __end_of_PWM4_Initialize 01EB                 ?_INTERRUPT_InterruptManager 0070  
                                    ??_main 0035                      __end_of_WDT_Initialize 02A0  
              ??_IOCCF4_SetInterruptHandler 0035                   __end_of_PWM4_DutyCycleSet 028A  
                                    _ANSELA 018C                                      _ANSELB 018D  
                                    _ANSELC 018E                                      _BORCON 0116  
                                    _RA0PPS 0E90                                      _RC0PPS 0EA0  
                                    _RB4PPS 0E9C                                      _RB5PPS 0E9D  
                          ?_PWM1_Initialize 0070                                      i1l2081 0267  
                                    _ODCONA 028C                                      _ODCONB 028D  
                                    i1l2083 026C                                      i1l2091 000E  
                                    _ODCONC 028E                                      i1l2087 0006  
                                    i1l2089 000A                                      i1l1811 0299  
                                    i1l1805 02B2                                      i1l1813 02AC  
                                    i1l1821 02A6                                      i1l1901 01A0  
                                    i1l1807 02B5                                      i1l1815 02AF  
                                    i1l1823 02A9                                      i1l1831 02A3  
                                    i1l1911 01B8                                      i1l1809 0296  
                                    i1l1817 0290                                      i1l1825 028A  
                                    i1l1833 0284                                      i1l1913 01BE  
                                    i1l1819 0293                                      i1l1827 028D  
                                    i1l1835 0287                                      i1l1843 0031  
                                    i1l1915 01C4                                      i1l1907 01A7  
                                    i1l1829 02A0                                      i1l1861 0074  
                                    i1l1853 004D                                      i1l1845 0039  
                                    i1l1837 0030                                      i1l1917 01C8  
                                    i1l1909 01AD                                      i1l1871 00A1  
                                    i1l1863 007A                                      i1l1855 0055  
                                    i1l1919 01CE                                      i1l1881 00D1  
                                    i1l1873 00A5                                      i1l1865 0084  
                                    i1l1857 005B                                      i1l1849 0043  
                                    i1l1891 00E0                                      i1l1883 00D4  
                                    i1l1875 00AB                                      i1l1867 0093  
                                    i1l1859 0065                                      i1l1963 024C  
                                    i1l1885 00D7                                      i1l1877 00CB  
                                    i1l1869 0099                                      i1l1965 0253  
                                    i1l1887 00DA                                      i1l1879 00CE  
                                    i1l1895 019F                                      i1l1967 0258  
                                    i1l1889 00DD                                      _INLVLA 038C  
                                    _INLVLB 038D                                      _INLVLC 038E  
                                    _OSCCON 0099                                      _WDTCON 0097  
           PWM1_DutyCycleSet@dutyCycleCount 0070                            ?_PWM2_Initialize 0070  
                          __end_of_int_strb 01D2                  __end_of_PWM2_LoadBufferSet 02B2  
                           ?_WDT_Initialize 0070                                   ??_set_pwm 0072  
IOCCF4_SetInterruptHandler@InterruptHandler 0033                            ?_PIN_MANAGER_IOC 0070  
                              ??_IOCCF4_ISR 007D                            ?_PWM3_Initialize 0070  
                         _SYSTEM_Initialize 0236                          _PWM1_LoadBufferSet 02B5  
                   __end_of__initialization 002C                          ?_SYSTEM_Initialize 0070  
                       ?_PWM1_LoadBufferSet 0070                              __pcstackCOMMON 0070  
                              __pidataBANK0 0270                         ??_SYSTEM_Initialize 0035  
                               int_strb@idx 007C                            ?_PWM4_Initialize 0070  
                        __end_of_IOCCF4_ISR 025B                              _OPTION_REGbits 0095  
                      ??_PWM1_LoadBufferSet 0070                   __end_of_SYSTEM_Initialize 024C  
                                __pbssBANK0 0020                                  __pmaintext 00E4  
                                __pintentry 0004                                     _PWM1DCH 0D94  
                              ??_PWM1_Start 0070                                     _PWM1DCL 0D93  
                                   _PWM2DCH 0DA4                                     _PWM2DCL 0DA3  
                                   _OSCTUNE 0098                                     _PWM3DCH 0DB4  
                                   _PWM3DCL 0DB3                                     _PWM4DCH 0DC4  
                                   _PWM1CON 0D9B                                     _PWM4DCL 0DC3  
                                   _PWM2CON 0DAB                                     _PWM3CON 0DBB  
                                   _PWM1OFH 0D98                                     _PWM4CON 0DCB  
                                   _PWM1OFL 0D97                                     _PWM1PHH 0D92  
                                   _PWM2OFH 0DA8                                     _PWM1PHL 0D91  
                                   _PWM2OFL 0DA7                                ??_PWM2_Start 0070  
                                   _PWM2PHH 0DA2                                     _PWM3OFH 0DB8  
                                   _PWM2PHL 0DA1                                     _PWM3OFL 0DB7  
                                   _PWM3PHH 0DB2                                     _PWM4OFH 0DC8  
                                   _PWM1PRH 0D96                                     _PWM3PHL 0DB1  
                                   _PWM4OFL 0DC7                                     _PWM1PRL 0D95  
                                   _PWM4PHH 0DC2                                     _PWM2PRH 0DA6  
                                   _PWM4PHL 0DC1          __end_of_IOCCF4_SetInterruptHandler 0284  
                                   _PWM2PRL 0DA5                  _IOCCF4_SetInterruptHandler 027E  
                                   _PWM3PRH 0DB6                                     _PWM3PRL 0DB5  
                                   _PWM4PRH 0DC6                                     _PWM4PRL 0DC5  
                                   _SLRCONA 030C                                     _SLRCONB 030D  
                                   _SLRCONC 030E                                ??_PWM3_Start 0070  
                              ??_PWM4_Start 0070                                   ?_int_strb 0070  
                        __end_of_PWM1_Start 02B5                          __end_of_PWM2_Start 02AF  
                        __end_of_PWM3_Start 02A9                          __end_of_PWM4_Start 02A3  
                                   __ptext1 0236                                     __ptext2 029C  
                                   __ptext3 01D2                                     __ptext4 01EB  
                                   __ptext5 0204                                     __ptext6 021D  
                                   __ptext7 0162                                     __ptext8 027E  
                                   __ptext9 025B                       _OSCILLATOR_Initialize 025B  
                  ??_PIN_MANAGER_Initialize 0035                                   _IOCCFbits 0399  
                                   _set_pwm 0030                                   _IOCCNbits 0398  
                                 _IOCCPbits 0397                        end_of_initialization 002C  
                                   init_ram 0278                                     initloop 0279  
                                ??_int_strb 0079                                   _PWM1LDCON 0D9F  
                                 _PWM2LDCON 0DAF                                   _PWM1OFCON 0DA0  
                                 _PWM3LDCON 0DBF                                   _PWM2OFCON 0DB0  
                                 _PWM4LDCON 0DCF                                   _PWM3OFCON 0DC0  
                                 _PWM4OFCON 0DD0                            ??_WDT_Initialize 0033  
                                 _PORTAbits 000C                                   _PORTBbits 000D  
                                 _PORTCbits 000E                     _IOCCF4_InterruptHandler 0037  
                                 _TRISBbits 008D                  __end_of_PWM3_LoadBufferSet 02AC  
                        _PWM2_LoadBufferSet 02AF                         ?_PWM2_LoadBufferSet 0070  
                    ?_OSCILLATOR_Initialize 0070                         start_initialization 0015  
                      ??_PWM2_LoadBufferSet 0070                               _PWM1LDCONbits 0D9F  
                             _PWM2LDCONbits 0DAF                               _PWM3LDCONbits 0DBF  
           PWM4_DutyCycleSet@dutyCycleCount 0070                               _PWM4LDCONbits 0DCF  
                               __pdataBANK0 002B                                   ___latbits 0002  
                             __pcstackBANK0 0033                 ?_IOCCF4_SetInterruptHandler 0033  
                                 __pnvBANK0 0037                      _PIN_MANAGER_Initialize 0162  
           PWM2_DutyCycleSet@dutyCycleCount 0070                           ??_PWM1_Initialize 0033  
              ??_INTERRUPT_InterruptManager 007D                                    ?_set_pwm 0070  
                         _PWM1_DutyCycleSet 0296            ??_IOCCF4_DefaultInterruptHandler 0070  
           ?_IOCCF4_DefaultInterruptHandler 0070                           ??_PWM2_Initialize 0033  
                        ?_PWM1_DutyCycleSet 0070                                    _LATAbits 010C  
                                  _LATBbits 010D                                    _LATCbits 010E  
                       ??_PWM1_DutyCycleSet 0072                                    _PWM1INTE 0D9C  
                                  _PWM1INTF 0D9D                                    _PWM2INTE 0DAC  
                                  _PWM2INTF 0DAD                                    _PWM3INTE 0DBC  
                                  _PWM3INTF 0DBD                                    _PWM4INTE 0DCC  
                                  _PWM4INTF 0DCD                                    _PWM1TMRH 0D9A  
                                  _PWM1TMRL 0D99                                    _PWM2TMRH 0DAA  
                                  _PWM2TMRL 0DA9                                    _PWM3TMRH 0DBA  
                                  _PWM3TMRL 0DB9                                    _PWM4TMRH 0DCA  
                                  _PWM4TMRL 0DC9                           ??_PIN_MANAGER_IOC 007D  
                         ??_PWM3_Initialize 0033                   __end_of_PWM1_DutyCycleSet 029C  
                __end_of_PWM4_LoadBufferSet 02A6                           ??_PWM4_Initialize 0033  
                        _PWM3_LoadBufferSet 02A9                                _PWM1INTFbits 0D9D  
                              _PWM2INTFbits 0DAD                                _PWM3INTFbits 0DBD  
                       ?_PWM3_LoadBufferSet 0070                     ??_OSCILLATOR_Initialize 0033  
                              _PWM4INTFbits 0DCD                                   int_strb@b 007B  
                                 int_strb@d 007A                                    __ptext11 0267  
                                  __ptext20 02A9                                    __ptext12 024C  
                                  __ptext21 028A                                    __ptext13 02B8  
                                  __ptext22 02AC                                    __ptext14 019F  
                                  __ptext23 02AF                                    __ptext15 0030  
                                  __ptext24 0290                                    __ptext16 02A0  
                                  __ptext25 02B2                                    __ptext17 02A3  
                                  __ptext26 02B5                                    __ptext18 0284  
                                  __ptext27 0296                                    __ptext19 02A6  
                      ??_PWM3_LoadBufferSet 0070                                    _cnt_push 0028  
                         _PWM2_DutyCycleSet 0290                                  _IOCCF4_ISR 024C  
                        ?_PWM2_DutyCycleSet 0070                                    _int_strb 019F  
                                 set_pwm@d0 0075                         ??_PWM2_DutyCycleSet 0072  
                                  int$flags 007E          __end_of_INTERRUPT_InterruptManager 0013  
                _INTERRUPT_InterruptManager 0004                                  _INTCONbits 000B  
                               _PWM1CONbits 0D9B                                 _PWM2CONbits 0DAB  
                               _PWM3CONbits 0DBB                                 _PWM4CONbits 0DCB  
                 __end_of_PWM2_DutyCycleSet 0296                                    intlevel1 0000  
                   ?_PIN_MANAGER_Initialize 0070                             _PWM1_Initialize 021D  
                                  set_pwm@d 0077                                    set_pwm@i 0074  
                                _PWM1CLKCON 0D9E                                  _PWM2CLKCON 0DAE  
                                _PWM3CLKCON 0DBE                                  _PWM4CLKCON 0DCE  
                __end_of_PWM1_LoadBufferSet 02B8                             _PWM2_Initialize 0204  
                                _PWM1_Start 02B2                                  _PWM2_Start 02AC  
                                _PWM3_Start 02A6                                  _PWM4_Start 02A0  
                               ?_IOCCF4_ISR 0070              __end_of_PIN_MANAGER_Initialize 019F  
                         _PWM3_DutyCycleSet 028A                             _PIN_MANAGER_IOC 0267  
                        ?_PWM3_DutyCycleSet 0070                             _PWM3_Initialize 01EB  
